(dp0
(S'AVBL'
p1
S'VD11'
p2
tp3
(dp4
S'MDR15'
p5
F0.07499999999999996
sS'MDR24'
p6
F0.028000000000000025
sS'MVL21'
p7
F0.08599999999999997
sS'MDL24'
p8
F-0.018999999999999906
sS'MVR04'
p9
F0.0
sS'MVR05'
p10
F0.0
sS'MDR23'
p11
F-0.006000000000000005
sS'MVR06'
p12
F0.0
sS'MVL02'
p13
F0.0
sS'MVR07'
p14
F0.0
sS'MVR01'
p15
F0.0
sS'MVR02'
p16
F0.0
sS'MDL10'
p17
F0.0
sS'MVR13'
p18
F0.0
sS'MDL23'
p19
F-0.008000000000000007
sS'MDL20'
p20
F0.052999999999999936
sS'MDL21'
p21
F0.0
sS'MVL01'
p22
F0.0
sS'MVR24'
p23
F-0.0040000000000000036
sS'MVR22'
p24
F0.039999999999999925
sS'MVR23'
p25
F0.05300000000000005
sS'MVR20'
p26
F0.013000000000000012
sS'MVR21'
p27
F-0.018000000000000016
sS'MVL11'
p28
F0.0
sS'MVL10'
p29
F0.0
sS'MDR17'
p30
F0.05799999999999994
sS'MVL12'
p31
F0.0
sS'MVL15'
p32
F0.0
sS'MVL14'
p33
F0.0
sS'MVL17'
p34
F0.018000000000000016
sS'MVL16'
p35
F0.0
sS'MVL19'
p36
F0.062000000000000055
sS'MVL18'
p37
F0.020000000000000018
sS'MDR19'
p38
F0.030000000000000027
sS'MDR18'
p39
F0.1289999999999999
sS'MDL22'
p40
F0.0040000000000000036
sS'MVR12'
p41
F0.0
sS'MVR11'
p42
F0.0
sS'MVR10'
p43
F0.0
sS'MVR17'
p44
F0.01100000000000001
sS'MVR16'
p45
F0.0
sS'MVR15'
p46
F0.0
sS'MVR14'
p47
F0.0
sS'MVL13'
p48
F0.0
sS'MVR19'
p49
F0.050000000000000044
sS'MVR18'
p50
F0.009000000000000008
sS'MDR06'
p51
F0.0
sS'MVL03'
p52
F0.0
sS'MDR04'
p53
F0.0
sS'MDR05'
p54
F0.0
sS'MDR02'
p55
F0.0
sS'MVL07'
p56
F0.0
sS'MVL04'
p57
F0.0
sS'MDR01'
p58
F0.0
sS'MVL06'
p59
F0.0
sS'MVL08'
p60
F0.0
sS'MVL09'
p61
F0.0
sS'MDR08'
p62
F0.0
sS'MDR03'
p63
F0.0
sS'MVL05'
p64
F0.0
sS'MVR08'
p65
F0.0
sS'MVR09'
p66
F0.0
sS'MDL19'
p67
F0.04500000000000004
sS'MDL18'
p68
F0.1070000000000001
sS'MDL17'
p69
F0.03799999999999992
sS'MDL16'
p70
F0.0
sS'MDL15'
p71
F0.05499999999999994
sS'MDL14'
p72
F0.0
sS'MDL13'
p73
F0.0
sS'MDL12'
p74
F0.0
sS'MDL11'
p75
F0.0
sS'MVR03'
p76
F0.0
sS'MDR09'
p77
F0.0
sS'MDL08'
p78
F0.0
sS'MDL09'
p79
F0.0
sS'MDR14'
p80
F0.0
sS'MDL01'
p81
F0.0
sS'MDL02'
p82
F0.0
sS'MDL03'
p83
F0.0
sS'MDL04'
p84
F0.0
sS'MDL05'
p85
F0.0
sS'MDL06'
p86
F0.0
sS'MDL07'
p87
F0.0
sS'MDR16'
p88
F0.0
sS'MVL20'
p89
F0.028000000000000025
sS'MDR11'
p90
F0.0
sS'MVL22'
p91
F0.016999999999999904
sS'MVL23'
p92
F0.0040000000000000036
sS'MDR20'
p93
F0.015000000000000013
sS'MDR21'
p94
F0.009000000000000008
sS'MDR22'
p95
F-0.0020000000000000018
sS'MDR10'
p96
F0.0
sS'MDR13'
p97
F0.0
sS'MDR12'
p98
F0.0
sS'MDR07'
p99
F0.0
ss(S'DVB'
p100
S'VD09'
p101
tp102
(dp103
g5
F0.07899999999999996
sg6
F0.062
sg7
F-0.0020000000000000018
sg8
F-0.027999999999999914
sg9
F0.0
sg10
F0.0
sg11
F0.0010000000000000009
sg12
F0.0
sg13
F0.0
sg14
F0.0
sg15
F0.0
sg16
F0.0
sg17
F0.0
sg18
F0.0
sg19
F-0.007000000000000006
sg20
F0.05899999999999994
sg21
F0.0
sg22
F0.0
sg23
F0.004999999999999893
sg24
F0.008999999999999897
sg25
F0.040000000000000036
sg26
F0.0050000000000000044
sg27
F-0.006000000000000005
sg28
F0.0
sg29
F0.0
sg30
F0.09499999999999997
sg31
F0.0
sg32
F0.0
sg33
F0.0
sg34
F0.02100000000000002
sg35
F0.0
sg36
F0.007000000000000006
sg37
F0.029000000000000026
sg38
F0.06599999999999995
sg39
F0.1289999999999999
sg40
F-0.005999999999999894
sg41
F0.0
sg42
F0.0
sg43
F0.0
sg44
F0.010000000000000009
sg45
F0.0
sg46
F0.0
sg47
F0.0
sg48
F0.0
sg49
F0.006000000000000005
sg50
F0.031000000000000028
sg51
F0.0
sg52
F0.0
sg53
F0.0
sg54
F0.0
sg55
F0.0
sg56
F0.0
sg57
F0.0
sg58
F0.0
sg59
F0.0
sg60
F0.0
sg61
F0.0
sg62
F0.0
sg63
F0.0
sg64
F0.0
sg65
F0.0
sg66
F0.0
sg67
F0.028000000000000025
sg68
F0.125
sg69
F0.05799999999999994
sg70
F0.0
sg71
F0.08499999999999996
sg72
F0.0
sg73
F0.0
sg74
F0.0
sg75
F0.0
sg76
F0.0
sg77
F0.0
sg78
F0.0
sg79
F0.0
sg80
F0.0
sg81
F0.0
sg82
F0.0
sg83
F0.0
sg84
F0.0
sg85
F0.0
sg86
F0.0
sg87
F0.0
sg88
F0.0
sg89
F0.006000000000000005
sg90
F0.0
sg91
F-0.0030000000000000027
sg92
F-0.0020000000000000018
sg93
F0.04600000000000004
sg94
F0.041000000000000036
sg95
F0.01100000000000001
sg96
F0.0
sg97
F0.0
sg98
F0.0
sg99
F0.0
ss(S'DVB'
p104
S'VA09'
p105
tp106
(dp107
g5
F0.07499999999999996
sg6
F0.07300000000000001
sg7
F0.01100000000000001
sg8
F-0.03499999999999992
sg9
F0.0
sg10
F0.0
sg11
F-0.02100000000000002
sg12
F0.0
sg13
F0.0
sg14
F0.0
sg15
F0.0
sg16
F0.0
sg17
F0.0
sg18
F0.0
sg19
F0.013000000000000012
sg20
F0.04499999999999993
sg21
F0.0
sg22
F0.0
sg23
F-0.0030000000000000027
sg24
F0.009999999999999898
sg25
F0.03400000000000003
sg26
F0.0020000000000000018
sg27
F0.0
sg28
F0.0
sg29
F0.0
sg30
F0.06599999999999995
sg31
F0.0
sg32
F0.0
sg33
F0.0
sg34
F0.016000000000000014
sg35
F0.0
sg36
F0.013000000000000012
sg37
F0.05700000000000005
sg38
F0.038000000000000034
sg39
F0.1419999999999999
sg40
F-0.0029999999999998916
sg41
F0.0
sg42
F0.0
sg43
F0.0
sg44
F0.01100000000000001
sg45
F0.0
sg46
F0.0
sg47
F0.0
sg48
F0.0
sg49
F0.010000000000000009
sg50
F0.041000000000000036
sg51
F0.0
sg52
F0.0
sg53
F0.0
sg54
F0.0
sg55
F0.0
sg56
F0.0
sg57
F0.0
sg58
F0.0
sg59
F0.0
sg60
F0.0
sg61
F0.0
sg62
F0.0
sg63
F0.0
sg64
F0.0
sg65
F0.0
sg66
F0.0
sg67
F0.05900000000000005
sg68
F0.15200000000000002
sg69
F0.03699999999999992
sg70
F0.0
sg71
F0.09499999999999997
sg72
F0.0
sg73
F0.0
sg74
F0.0
sg75
F0.0
sg76
F0.0
sg77
F0.0
sg78
F0.0
sg79
F0.0
sg80
F0.0
sg81
F0.0
sg82
F0.0
sg83
F0.0
sg84
F0.0
sg85
F0.0
sg86
F0.0
sg87
F0.0
sg88
F0.0
sg89
F0.008000000000000007
sg90
F0.0
sg91
F-0.010000000000000009
sg92
F-0.007000000000000006
sg93
F0.06400000000000006
sg94
F-0.0010000000000000009
sg95
F0.008000000000000007
sg96
F0.0
sg97
F0.0
sg98
F0.0
sg99
F0.0
ss(S'VA10'
p108
S'VA11'
p109
tp110
(dp111
g5
F-0.015000000000000013
sg6
F0.020000000000000018
sg7
F0.15599999999999992
sg8
F0.013000000000000012
sg9
F0.0
sg10
F0.0
sg11
F-0.0020000000000000018
sg12
F0.0
sg13
F0.0
sg14
F0.0
sg15
F0.0
sg16
F0.0
sg17
F0.0
sg18
F0.0
sg19
F-0.01200000000000001
sg20
F0.013000000000000012
sg21
F0.0
sg22
F0.0
sg23
F0.0119999999999999
sg24
F0.10799999999999998
sg25
F0.05700000000000005
sg26
F0.04200000000000004
sg27
F-0.008000000000000007
sg28
F0.0
sg29
F0.0
sg30
F0.0039999999999998925
sg31
F0.0
sg32
F0.0
sg33
F0.0
sg34
F0.061000000000000054
sg35
F0.0
sg36
F0.18200000000000005
sg37
F0.04200000000000004
sg38
F-0.02100000000000002
sg39
F0.0029999999999998916
sg40
F0.019000000000000017
sg41
F0.0
sg42
F0.0
sg43
F0.0
sg44
F0.05900000000000005
sg45
F0.0
sg46
F0.0
sg47
F0.0
sg48
F0.0
sg49
F0.15300000000000002
sg50
F0.031000000000000028
sg51
F0.0
sg52
F0.0
sg53
F0.0
sg54
F0.0
sg55
F0.0
sg56
F0.0
sg57
F0.0
sg58
F0.0
sg59
F0.0
sg60
F0.0
sg61
F0.0
sg62
F0.0
sg63
F0.0
sg64
F0.0
sg65
F0.0
sg66
F0.0
sg67
F0.015000000000000013
sg68
F-0.010999999999999899
sg69
F-0.014000000000000012
sg70
F0.0
sg71
F0.0010000000000000009
sg72
F0.0
sg73
F0.0
sg74
F0.0
sg75
F0.0
sg76
F0.0
sg77
F0.0
sg78
F0.0
sg79
F0.0
sg80
F0.0
sg81
F0.0
sg82
F0.0
sg83
F0.0
sg84
F0.0
sg85
F0.0
sg86
F0.0
sg87
F0.0
sg88
F0.0
sg89
F0.06499999999999995
sg90
F0.0
sg91
F0.008999999999999897
sg92
F0.031000000000000028
sg93
F-0.0050000000000000044
sg94
F0.007000000000000006
sg95
F-0.014999999999999902
sg96
F0.0
sg97
F0.0
sg98
F0.0
sg99
F0.0
ss(S'VA09'
p112
S'VB08'
p113
tp114
(dp115
g5
F-0.0030000000000000027
sg6
F0.029000000000000026
sg7
F0.052999999999999936
sg8
F-0.038999999999999924
sg9
F0.0
sg10
F0.0
sg11
F0.009000000000000008
sg12
F0.0
sg13
F0.0
sg14
F0.0
sg15
F0.0
sg16
F0.0
sg17
F0.0
sg18
F0.0
sg19
F-0.006000000000000005
sg20
F0.02399999999999991
sg21
F0.0
sg22
F0.0
sg23
F0.0
sg24
F0.05699999999999994
sg25
F0.017000000000000015
sg26
F0.027000000000000024
sg27
F0.008999999999999897
sg28
F0.0
sg29
F0.0
sg30
F-0.010000000000000009
sg31
F0.0
sg32
F0.0
sg33
F0.0
sg34
F0.09599999999999997
sg35
F0.0
sg36
F0.04500000000000004
sg37
F0.239
sg38
F-0.0040000000000000036
sg39
F0.004999999999999893
sg40
F0.0010000000000000009
sg41
F0.0
sg42
F0.0
sg43
F0.0
sg44
F0.06799999999999995
sg45
F0.0
sg46
F0.0
sg47
F0.0
sg48
F0.0
sg49
F0.05300000000000005
sg50
F0.267
sg51
F0.0
sg52
F0.0
sg53
F0.0
sg54
F0.0
sg55
F0.0
sg56
F0.0
sg57
F0.0
sg58
F0.0
sg59
F0.0
sg60
F0.0
sg61
F0.0
sg62
F0.0
sg63
F0.0
sg64
F0.0
sg65
F0.0
sg66
F0.0
sg67
F0.01200000000000001
sg68
F-0.02199999999999991
sg69
F-0.0020000000000000018
sg70
F0.0
sg71
F0.0020000000000000018
sg72
F0.0
sg73
F0.0
sg74
F0.0
sg75
F0.0
sg76
F0.0
sg77
F0.0
sg78
F0.0
sg79
F0.0
sg80
F0.0
sg81
F0.0
sg82
F0.0
sg83
F0.0
sg84
F0.0
sg85
F0.0
sg86
F0.0
sg87
F0.0
sg88
F0.0
sg89
F0.03300000000000003
sg90
F0.0
sg91
F0.004999999999999893
sg92
F0.031000000000000028
sg93
F-0.0050000000000000044
sg94
F0.007000000000000006
sg95
F0.0020000000000000018
sg96
F0.0
sg97
F0.0
sg98
F0.0
sg99
F0.0
ss(S'VB08'
p116
S'VB10'
p117
tp118
(dp119
g5
F-0.019000000000000017
sg6
F0.03300000000000003
sg7
F0.1389999999999999
sg8
F-0.0119999999999999
sg9
F0.0
sg10
F0.0
sg11
F-0.03699999999999998
sg12
F0.0
sg13
F0.0
sg14
F0.0
sg15
F0.0
sg16
F0.0
sg17
F0.0
sg18
F0.0
sg19
F-0.014000000000000012
sg20
F0.014999999999999902
sg21
F0.0
sg22
F0.0
sg23
F0.028999999999999915
sg24
F0.1309999999999999
sg25
F0.014000000000000012
sg26
F0.062000000000000055
sg27
F0.004999999999999893
sg28
F0.0
sg29
F0.0
sg30
F0.004999999999999893
sg31
F0.0
sg32
F0.0
sg33
F0.0
sg34
F0.03400000000000003
sg35
F0.0
sg36
F0.18600000000000005
sg37
F0.020000000000000018
sg38
F-0.009000000000000008
sg39
F0.007999999999999896
sg40
F-0.0039999999999998925
sg41
F0.0
sg42
F0.0
sg43
F0.0
sg44
F0.025000000000000022
sg45
F0.0
sg46
F0.0
sg47
F0.0
sg48
F0.0
sg49
F0.17400000000000004
sg50
F0.018000000000000016
sg51
F0.0
sg52
F0.0
sg53
F0.0
sg54
F0.0
sg55
F0.0
sg56
F0.0
sg57
F0.0
sg58
F0.0
sg59
F0.0
sg60
F0.0
sg61
F0.0
sg62
F0.0
sg63
F0.0
sg64
F0.0
sg65
F0.0
sg66
F0.0
sg67
F0.031000000000000028
sg68
F-0.0050000000000000044
sg69
F-0.018000000000000016
sg70
F0.0
sg71
F-0.0050000000000000044
sg72
F0.0
sg73
F0.0
sg74
F0.0
sg75
F0.0
sg76
F0.0
sg77
F0.0
sg78
F0.0
sg79
F0.0
sg80
F0.0
sg81
F0.0
sg82
F0.0
sg83
F0.0
sg84
F0.0
sg85
F0.0
sg86
F0.0
sg87
F0.0
sg88
F0.0
sg89
F0.08099999999999996
sg90
F0.0
sg91
F0.025999999999999912
sg92
F0.05599999999999994
sg93
F-0.009000000000000008
sg94
F0.025000000000000022
sg95
F0.015000000000000013
sg96
F0.0
sg97
F0.0
sg98
F0.0
sg99
F0.0
ss(S'VD10'
p120
S'VD11'
p121
tp122
(dp123
g5
F-0.009000000000000008
sg6
F0.04799999999999999
sg7
F0.1479999999999999
sg8
F-0.02199999999999991
sg9
F0.0
sg10
F0.0
sg11
F-0.020000000000000018
sg12
F0.0
sg13
F0.0
sg14
F0.0
sg15
F0.0
sg16
F0.0
sg17
F0.0
sg18
F0.0
sg19
F-0.007000000000000006
sg20
F0.0030000000000000027
sg21
F0.0
sg22
F0.0
sg23
F0.014999999999999902
sg24
F0.11299999999999999
sg25
F0.09000000000000002
sg26
F0.05400000000000005
sg27
F0.007999999999999896
sg28
F0.0
sg29
F0.0
sg30
F0.016999999999999904
sg31
F0.0
sg32
F0.0
sg33
F0.0
sg34
F0.03300000000000003
sg35
F0.0
sg36
F0.20499999999999996
sg37
F0.016000000000000014
sg38
F-0.014000000000000012
sg39
F0.013999999999999901
sg40
F-0.0039999999999998925
sg41
F0.0
sg42
F0.0
sg43
F0.0
sg44
F0.02100000000000002
sg45
F0.0
sg46
F0.0
sg47
F0.0
sg48
F0.0
sg49
F0.16600000000000004
sg50
F0.008000000000000007
sg51
F0.0
sg52
F0.0
sg53
F0.0
sg54
F0.0
sg55
F0.0
sg56
F0.0
sg57
F0.0
sg58
F0.0
sg59
F0.0
sg60
F0.0
sg61
F0.0
sg62
F0.0
sg63
F0.0
sg64
F0.0
sg65
F0.0
sg66
F0.0
sg67
F0.008000000000000007
sg68
F-0.014999999999999902
sg69
F-0.0050000000000000044
sg70
F0.0
sg71
F-0.0010000000000000009
sg72
F0.0
sg73
F0.0
sg74
F0.0
sg75
F0.0
sg76
F0.0
sg77
F0.0
sg78
F0.0
sg79
F0.0
sg80
F0.0
sg81
F0.0
sg82
F0.0
sg83
F0.0
sg84
F0.0
sg85
F0.0
sg86
F0.0
sg87
F0.0
sg88
F0.0
sg89
F0.07499999999999996
sg90
F0.0
sg91
F0.008999999999999897
sg92
F0.039000000000000035
sg93
F0.0
sg94
F0.009000000000000008
sg95
F-0.0020000000000000018
sg96
F0.0
sg97
F0.0
sg98
F0.0
sg99
F0.0
ss(S'DVB'
p124
S'VD10'
p125
tp126
(dp127
g5
F0.07699999999999996
sg6
F0.044999999999999984
sg7
F0.0040000000000000036
sg8
F0.009000000000000008
sg9
F0.0
sg10
F0.0
sg11
F0.009000000000000008
sg12
F0.0
sg13
F0.0
sg14
F0.0
sg15
F0.0
sg16
F0.0
sg17
F0.0
sg18
F0.0
sg19
F-0.006000000000000005
sg20
F0.04899999999999993
sg21
F0.0
sg22
F0.0
sg23
F0.005999999999999894
sg24
F0.04499999999999993
sg25
F0.04500000000000004
sg26
F0.010000000000000009
sg27
F-0.015000000000000013
sg28
F0.0
sg29
F0.0
sg30
F0.08099999999999996
sg31
F0.0
sg32
F0.0
sg33
F0.0
sg34
F0.026000000000000023
sg35
F0.0
sg36
F0.016000000000000014
sg37
F0.01100000000000001
sg38
F0.041000000000000036
sg39
F0.1339999999999999
sg40
F-0.010999999999999899
sg41
F0.0
sg42
F0.0
sg43
F0.0
sg44
F0.02200000000000002
sg45
F0.0
sg46
F0.0
sg47
F0.0
sg48
F0.0
sg49
F0.009000000000000008
sg50
F0.008000000000000007
sg51
F0.0
sg52
F0.0
sg53
F0.0
sg54
F0.0
sg55
F0.0
sg56
F0.0
sg57
F0.0
sg58
F0.0
sg59
F0.0
sg60
F0.0
sg61
F0.0
sg62
F0.0
sg63
F0.0
sg64
F0.0
sg65
F0.0
sg66
F0.0
sg67
F0.04400000000000004
sg68
F0.128
sg69
F0.04799999999999993
sg70
F0.0
sg71
F0.07999999999999996
sg72
F0.0
sg73
F0.0
sg74
F0.0
sg75
F0.0
sg76
F0.0
sg77
F0.0
sg78
F0.0
sg79
F0.0
sg80
F0.0
sg81
F0.0
sg82
F0.0
sg83
F0.0
sg84
F0.0
sg85
F0.0
sg86
F0.0
sg87
F0.0
sg88
F0.0
sg89
F0.013000000000000012
sg90
F0.0
sg91
F-0.02400000000000002
sg92
F0.006000000000000005
sg93
F0.05900000000000005
sg94
F0.016000000000000014
sg95
F0.015000000000000013
sg96
F0.0
sg97
F0.0
sg98
F0.0
sg99
F0.0
ss(S'VA09'
p128
S'VB10'
p129
tp130
(dp131
g5
F-0.01100000000000001
sg6
F0.04799999999999999
sg7
F0.131
sg8
F0.01200000000000001
sg9
F0.0
sg10
F0.0
sg11
F-0.009000000000000008
sg12
F0.0
sg13
F0.0
sg14
F0.0
sg15
F0.0
sg16
F0.0
sg17
F0.0
sg18
F0.0
sg19
F-0.017000000000000015
sg20
F0.009000000000000008
sg21
F0.0
sg22
F0.0
sg23
F0.0
sg24
F0.119
sg25
F0.062000000000000055
sg26
F0.04300000000000004
sg27
F-0.0050000000000000044
sg28
F0.0
sg29
F0.0
sg30
F-0.008000000000000007
sg31
F0.0
sg32
F0.0
sg33
F0.0
sg34
F0.040000000000000036
sg35
F0.0
sg36
F0.15200000000000002
sg37
F0.09999999999999998
sg38
F-0.010000000000000009
sg39
F-0.009000000000000008
sg40
F-0.02499999999999991
sg41
F0.0
sg42
F0.0
sg43
F0.0
sg44
F0.03600000000000003
sg45
F0.0
sg46
F0.0
sg47
F0.0
sg48
F0.0
sg49
F0.136
sg50
F0.08799999999999997
sg51
F0.0
sg52
F0.0
sg53
F0.0
sg54
F0.0
sg55
F0.0
sg56
F0.0
sg57
F0.0
sg58
F0.0
sg59
F0.0
sg60
F0.0
sg61
F0.0
sg62
F0.0
sg63
F0.0
sg64
F0.0
sg65
F0.0
sg66
F0.0
sg67
F0.019000000000000017
sg68
F-0.0030000000000000027
sg69
F-0.013000000000000012
sg70
F0.0
sg71
F0.006000000000000005
sg72
F0.0
sg73
F0.0
sg74
F0.0
sg75
F0.0
sg76
F0.0
sg77
F0.0
sg78
F0.0
sg79
F0.0
sg80
F0.0
sg81
F0.0
sg82
F0.0
sg83
F0.0
sg84
F0.0
sg85
F0.0
sg86
F0.0
sg87
F0.0
sg88
F0.0
sg89
F0.05500000000000005
sg90
F0.0
sg91
F0.0039999999999998925
sg92
F0.039000000000000035
sg93
F-0.009000000000000008
sg94
F0.027000000000000024
sg95
F-0.007000000000000006
sg96
F0.0
sg97
F0.0
sg98
F0.0
sg99
F0.0
ss(S'VA09'
p132
S'VA11'
p133
tp134
(dp135
g5
F-0.01200000000000001
sg6
F0.059
sg7
F0.125
sg8
F-0.007999999999999896
sg9
F0.0
sg10
F0.0
sg11
F-0.019000000000000017
sg12
F0.0
sg13
F0.0
sg14
F0.0
sg15
F0.0
sg16
F0.0
sg17
F0.0
sg18
F0.0
sg19
F-0.0040000000000000036
sg20
F0.0030000000000000027
sg21
F0.0
sg22
F0.0
sg23
F0.017999999999999905
sg24
F0.121
sg25
F0.028000000000000025
sg26
F0.038000000000000034
sg27
F0.016999999999999904
sg28
F0.0
sg29
F0.0
sg30
F0.016999999999999904
sg31
F0.0
sg32
F0.0
sg33
F0.0
sg34
F0.04300000000000004
sg35
F0.0
sg36
F0.15400000000000003
sg37
F0.10099999999999998
sg38
F-0.019000000000000017
sg39
F0.008999999999999897
sg40
F-0.02199999999999991
sg41
F0.0
sg42
F0.0
sg43
F0.0
sg44
F0.03200000000000003
sg45
F0.0
sg46
F0.0
sg47
F0.0
sg48
F0.0
sg49
F0.15200000000000002
sg50
F0.06999999999999995
sg51
F0.0
sg52
F0.0
sg53
F0.0
sg54
F0.0
sg55
F0.0
sg56
F0.0
sg57
F0.0
sg58
F0.0
sg59
F0.0
sg60
F0.0
sg61
F0.0
sg62
F0.0
sg63
F0.0
sg64
F0.0
sg65
F0.0
sg66
F0.0
sg67
F0.020000000000000018
sg68
F0.0
sg69
F-0.010000000000000009
sg70
F0.0
sg71
F-0.0040000000000000036
sg72
F0.0
sg73
F0.0
sg74
F0.0
sg75
F0.0
sg76
F0.0
sg77
F0.0
sg78
F0.0
sg79
F0.0
sg80
F0.0
sg81
F0.0
sg82
F0.0
sg83
F0.0
sg84
F0.0
sg85
F0.0
sg86
F0.0
sg87
F0.0
sg88
F0.0
sg89
F0.05500000000000005
sg90
F0.0
sg91
F0.007999999999999896
sg92
F0.038000000000000034
sg93
F-0.0119999999999999
sg94
F0.0040000000000000036
sg95
F-0.0020000000000000018
sg96
F0.0
sg97
F0.0
sg98
F0.0
sg99
F0.0
ss(S'VB10'
p136
S'VD11'
p137
tp138
(dp139
g5
F-0.02200000000000002
sg6
F0.055999999999999994
sg7
F0.19499999999999995
sg8
F-0.020999999999999908
sg9
F0.0
sg10
F0.0
sg11
F-0.014000000000000012
sg12
F0.0
sg13
F0.0
sg14
F0.0
sg15
F0.0
sg16
F0.0
sg17
F0.0
sg18
F0.0
sg19
F-0.015000000000000013
sg20
F0.01200000000000001
sg21
F0.0
sg22
F0.0
sg23
F0.039999999999999925
sg24
F0.1459999999999999
sg25
F0.08100000000000007
sg26
F0.0
sg27
F0.025999999999999912
sg28
F0.0
sg29
F0.0
sg30
F0.0019999999999998908
sg31
F0.0
sg32
F0.0
sg33
F0.0
sg34
F0.0
sg35
F0.0
sg36
F0.277
sg37
F0.0
sg38
F0.025000000000000022
sg39
F0.009999999999999898
sg40
F0.009000000000000008
sg41
F0.0
sg42
F0.0
sg43
F0.0
sg44
F0.0
sg45
F0.0
sg46
F0.0
sg47
F0.0
sg48
F0.0
sg49
F0.20999999999999996
sg50
F0.0
sg51
F0.0
sg52
F0.0
sg53
F0.0
sg54
F0.0
sg55
F0.0
sg56
F0.0
sg57
F0.0
sg58
F0.0
sg59
F0.0
sg60
F0.0
sg61
F0.0
sg62
F0.0
sg63
F0.0
sg64
F0.0
sg65
F0.0
sg66
F0.0
sg67
F0.0020000000000000018
sg68
F-0.014999999999999902
sg69
F-0.016000000000000014
sg70
F0.0
sg71
F-0.007000000000000006
sg72
F0.0
sg73
F0.0
sg74
F0.0
sg75
F0.0
sg76
F0.0
sg77
F0.0
sg78
F0.0
sg79
F0.0
sg80
F0.0
sg81
F0.0
sg82
F0.0
sg83
F0.0
sg84
F0.0
sg85
F0.0
sg86
F0.0
sg87
F0.0
sg88
F0.0
sg89
F0.0
sg90
F0.0
sg91
F-0.0040000000000000036
sg92
F0.029000000000000026
sg93
F-0.013999999999999901
sg94
F0.03300000000000003
sg95
F-0.02499999999999991
sg96
F0.0
sg97
F0.0
sg98
F0.0
sg99
F0.0
ss(S'VA11'
p140
S'VD09'
p141
tp142
(dp143
g5
F-0.02100000000000002
sg6
F0.028000000000000025
sg7
F0.127
sg8
F-0.017999999999999905
sg9
F0.0
sg10
F0.0
sg11
F0.01100000000000001
sg12
F0.0
sg13
F0.0
sg14
F0.0
sg15
F0.0
sg16
F0.0
sg17
F0.0
sg18
F0.0
sg19
F-0.03799999999999992
sg20
F0.02199999999999991
sg21
F0.0
sg22
F0.0
sg23
F0.0119999999999999
sg24
F0.122
sg25
F0.020000000000000018
sg26
F0.04300000000000004
sg27
F0.016999999999999904
sg28
F0.0
sg29
F0.0
sg30
F0.0129999999999999
sg31
F0.0
sg32
F0.0
sg33
F0.0
sg34
F0.052000000000000046
sg35
F0.0
sg36
F0.17400000000000004
sg37
F0.06000000000000005
sg38
F0.0010000000000000009
sg39
F0.016999999999999904
sg40
F0.02400000000000002
sg41
F0.0
sg42
F0.0
sg43
F0.0
sg44
F0.050000000000000044
sg45
F0.0
sg46
F0.0
sg47
F0.0
sg48
F0.0
sg49
F0.138
sg50
F0.039000000000000035
sg51
F0.0
sg52
F0.0
sg53
F0.0
sg54
F0.0
sg55
F0.0
sg56
F0.0
sg57
F0.0
sg58
F0.0
sg59
F0.0
sg60
F0.0
sg61
F0.0
sg62
F0.0
sg63
F0.0
sg64
F0.0
sg65
F0.0
sg66
F0.0
sg67
F0.007000000000000006
sg68
F-0.020999999999999908
sg69
F-0.019000000000000017
sg70
F0.0
sg71
F-0.009000000000000008
sg72
F0.0
sg73
F0.0
sg74
F0.0
sg75
F0.0
sg76
F0.0
sg77
F0.0
sg78
F0.0
sg79
F0.0
sg80
F0.0
sg81
F0.0
sg82
F0.0
sg83
F0.0
sg84
F0.0
sg85
F0.0
sg86
F0.0
sg87
F0.0
sg88
F0.0
sg89
F0.07899999999999996
sg90
F0.0
sg91
F0.006999999999999895
sg92
F0.05999999999999994
sg93
F0.008000000000000007
sg94
F0.02300000000000002
sg95
F-0.027999999999999914
sg96
F0.0
sg97
F0.0
sg98
F0.0
sg99
F0.0
ss(S'AVBL'
p144
S'VA11'
p145
tp146
(dp147
g5
F0.04699999999999993
sg6
F0.025000000000000022
sg7
F0.07399999999999995
sg8
F-0.013999999999999901
sg9
F0.0
sg10
F0.0
sg11
F-0.02799999999999997
sg12
F0.0
sg13
F0.0
sg14
F0.0
sg15
F0.0
sg16
F0.0
sg17
F0.0
sg18
F0.0
sg19
F0.0050000000000000044
sg20
F0.029999999999999916
sg21
F0.0
sg22
F0.0
sg23
F0.007999999999999896
sg24
F0.05699999999999994
sg25
F0.051000000000000045
sg26
F0.01100000000000001
sg27
F0.0010000000000000009
sg28
F0.0
sg29
F0.0
sg30
F0.06599999999999995
sg31
F0.0
sg32
F0.0
sg33
F0.0
sg34
F0.016000000000000014
sg35
F0.0
sg36
F0.06699999999999995
sg37
F0.015000000000000013
sg38
F0.03500000000000003
sg39
F0.1299999999999999
sg40
F-0.007999999999999896
sg41
F0.0
sg42
F0.0
sg43
F0.0
sg44
F0.015000000000000013
sg45
F0.0
sg46
F0.0
sg47
F0.0
sg48
F0.0
sg49
F0.06399999999999995
sg50
F0.008000000000000007
sg51
F0.0
sg52
F0.0
sg53
F0.0
sg54
F0.0
sg55
F0.0
sg56
F0.0
sg57
F0.0
sg58
F0.0
sg59
F0.0
sg60
F0.0
sg61
F0.0
sg62
F0.0
sg63
F0.0
sg64
F0.0
sg65
F0.0
sg66
F0.0
sg67
F0.03700000000000003
sg68
F0.09500000000000008
sg69
F0.03399999999999992
sg70
F0.0
sg71
F0.05899999999999994
sg72
F0.0
sg73
F0.0
sg74
F0.0
sg75
F0.0
sg76
F0.0
sg77
F0.0
sg78
F0.0
sg79
F0.0
sg80
F0.0
sg81
F0.0
sg82
F0.0
sg83
F0.0
sg84
F0.0
sg85
F0.0
sg86
F0.0
sg87
F0.0
sg88
F0.0
sg89
F0.026000000000000023
sg90
F0.0
sg91
F-0.007000000000000006
sg92
F0.008000000000000007
sg93
F0.028000000000000025
sg94
F0.05400000000000005
sg95
F-0.008999999999999897
sg96
F0.0
sg97
F0.0
sg98
F0.0
sg99
F0.0
ss(S'DA06'
p148
S'DB04'
p149
tp150
(dp151
g5
F0.15499999999999992
sg6
F0.059
sg7
F-0.0040000000000000036
sg8
F-0.017999999999999905
sg9
F0.0
sg10
F0.0
sg11
F-0.0040000000000000036
sg12
F0.0
sg13
F0.0
sg14
F0.0
sg15
F0.0
sg16
F0.0
sg17
F0.0
sg18
F0.0
sg19
F-0.009000000000000008
sg20
F0.03799999999999992
sg21
F0.0
sg22
F0.0
sg23
F-0.014000000000000012
sg24
F-0.007000000000000006
sg25
F0.018000000000000016
sg26
F0.0
sg27
F-0.018000000000000016
sg28
F0.0
sg29
F0.0
sg30
F0.04599999999999993
sg31
F0.0
sg32
F0.0
sg33
F0.0
sg34
F0.0
sg35
F0.0
sg36
F0.0
sg37
F0.0
sg38
F0.01100000000000001
sg39
F0.07899999999999996
sg40
F-0.010999999999999899
sg41
F0.0
sg42
F0.0
sg43
F0.0
sg44
F0.0
sg45
F0.0
sg46
F0.0
sg47
F0.0
sg48
F0.0
sg49
F0.0
sg50
F0.0
sg51
F0.0
sg52
F0.0
sg53
F0.0
sg54
F0.0
sg55
F0.0
sg56
F0.0
sg57
F0.0
sg58
F0.0
sg59
F0.0
sg60
F0.0
sg61
F0.0
sg62
F0.0
sg63
F0.0
sg64
F0.0
sg65
F0.0
sg66
F0.0
sg67
F0.040000000000000036
sg68
F0.06900000000000006
sg69
F0.03199999999999992
sg70
F0.16000000000000003
sg71
F0.16199999999999992
sg72
F0.0
sg73
F0.0
sg74
F0.0
sg75
F0.0
sg76
F0.0
sg77
F0.0
sg78
F0.0
sg79
F0.0
sg80
F0.0
sg81
F0.0
sg82
F0.0
sg83
F0.0
sg84
F0.0
sg85
F0.0
sg86
F0.0
sg87
F0.0
sg88
F0.18700000000000006
sg89
F0.0
sg90
F0.0
sg91
F0.0019999999999998908
sg92
F0.02300000000000002
sg93
F-0.0020000000000000018
sg94
F0.02200000000000002
sg95
F-0.015999999999999903
sg96
F0.0
sg97
F0.0
sg98
F0.0
sg99
F0.0
ss(S'DVB'
p152
S'VB09'
p153
tp154
(dp155
g5
F0.08599999999999997
sg6
F0.05499999999999999
sg7
F0.04299999999999993
sg8
F-0.007000000000000006
sg9
F0.0
sg10
F0.0
sg11
F-0.02400000000000002
sg12
F0.0
sg13
F0.0
sg14
F0.0
sg15
F0.0
sg16
F0.0
sg17
F0.0
sg18
F0.0
sg19
F0.0020000000000000018
sg20
F0.04699999999999993
sg21
F0.0
sg22
F0.0
sg23
F0.013999999999999901
sg24
F0.02299999999999991
sg25
F-0.019999999999999907
sg26
F0.009000000000000008
sg27
F0.0
sg28
F0.0
sg29
F0.0
sg30
F0.08899999999999997
sg31
F0.0
sg32
F0.0
sg33
F0.0
sg34
F0.028000000000000025
sg35
F0.0
sg36
F0.019000000000000017
sg37
F0.014000000000000012
sg38
F0.040000000000000036
sg39
F0.11299999999999999
sg40
F-0.008999999999999897
sg41
F0.0
sg42
F0.0
sg43
F0.0
sg44
F0.019000000000000017
sg45
F0.0
sg46
F0.0
sg47
F0.0
sg48
F0.0
sg49
F0.010000000000000009
sg50
F0.020000000000000018
sg51
F0.0
sg52
F0.0
sg53
F0.0
sg54
F0.0
sg55
F0.0
sg56
F0.0
sg57
F0.0
sg58
F0.0
sg59
F0.0
sg60
F0.0
sg61
F0.0
sg62
F0.0
sg63
F0.0
sg64
F0.0
sg65
F0.0
sg66
F0.0
sg67
F0.07300000000000006
sg68
F0.12
sg69
F0.05599999999999994
sg70
F0.0
sg71
F0.07299999999999995
sg72
F0.0
sg73
F0.0
sg74
F0.0
sg75
F0.0
sg76
F0.0
sg77
F0.0
sg78
F0.0
sg79
F0.0
sg80
F0.0
sg81
F0.0
sg82
F0.0
sg83
F0.0
sg84
F0.0
sg85
F0.0
sg86
F0.0
sg87
F0.0
sg88
F0.0
sg89
F0.016000000000000014
sg90
F0.0
sg91
F-0.0030000000000000027
sg92
F0.0040000000000000036
sg93
F0.050000000000000044
sg94
F0.061000000000000054
sg95
F-0.020999999999999908
sg96
F0.0
sg97
F0.0
sg98
F0.0
sg99
F0.0
ss(S'VA11'
p156
S'VD10'
p157
tp158
(dp159
g5
F-0.010000000000000009
sg6
F0.045999999999999985
sg7
F0.15399999999999991
sg8
F-0.017999999999999905
sg9
F0.0
sg10
F0.0
sg11
F-0.0040000000000000036
sg12
F0.0
sg13
F0.0
sg14
F0.0
sg15
F0.0
sg16
F0.0
sg17
F0.0
sg18
F0.0
sg19
F-0.01100000000000001
sg20
F0.027999999999999914
sg21
F0.0
sg22
F0.0
sg23
F0.019999999999999907
sg24
F0.128
sg25
F0.040000000000000036
sg26
F0.05900000000000005
sg27
F-0.0030000000000000027
sg28
F0.0
sg29
F0.0
sg30
F-0.015000000000000013
sg31
F0.0
sg32
F0.0
sg33
F0.0
sg34
F0.031000000000000028
sg35
F0.0
sg36
F0.19299999999999995
sg37
F0.014000000000000012
sg38
F0.0010000000000000009
sg39
F-0.0050000000000000044
sg40
F-0.007999999999999896
sg41
F0.0
sg42
F0.0
sg43
F0.0
sg44
F0.02100000000000002
sg45
F0.0
sg46
F0.0
sg47
F0.0
sg48
F0.0
sg49
F0.19699999999999995
sg50
F0.013000000000000012
sg51
F0.0
sg52
F0.0
sg53
F0.0
sg54
F0.0
sg55
F0.0
sg56
F0.0
sg57
F0.0
sg58
F0.0
sg59
F0.0
sg60
F0.0
sg61
F0.0
sg62
F0.0
sg63
F0.0
sg64
F0.0
sg65
F0.0
sg66
F0.0
sg67
F0.007000000000000006
sg68
F0.016000000000000014
sg69
F-0.017000000000000015
sg70
F0.0
sg71
F-0.008000000000000007
sg72
F0.0
sg73
F0.0
sg74
F0.0
sg75
F0.0
sg76
F0.0
sg77
F0.0
sg78
F0.0
sg79
F0.0
sg80
F0.0
sg81
F0.0
sg82
F0.0
sg83
F0.0
sg84
F0.0
sg85
F0.0
sg86
F0.0
sg87
F0.0
sg88
F0.0
sg89
F0.07699999999999996
sg90
F0.0
sg91
F0.016999999999999904
sg92
F0.039000000000000035
sg93
F-0.0119999999999999
sg94
F0.030000000000000027
sg95
F-0.019999999999999907
sg96
F0.0
sg97
F0.0
sg98
F0.0
sg99
F0.0
ss(S'VA09'
p160
S'VB09'
p161
tp162
(dp163
g5
F-0.01100000000000001
sg6
F0.028000000000000025
sg7
F0.09199999999999997
sg8
F-0.03499999999999992
sg9
F0.0
sg10
F0.0
sg11
F0.01200000000000001
sg12
F0.0
sg13
F0.0
sg14
F0.0
sg15
F0.0
sg16
F0.0
sg17
F0.0
sg18
F0.0
sg19
F-0.019000000000000017
sg20
F0.010000000000000009
sg21
F0.0
sg22
F0.0
sg23
F0.0119999999999999
sg24
F0.04299999999999993
sg25
F0.04800000000000004
sg26
F0.051000000000000045
sg27
F-0.013000000000000012
sg28
F0.0
sg29
F0.0
sg30
F-0.0020000000000000018
sg31
F0.0
sg32
F0.0
sg33
F0.0
sg34
F0.10099999999999998
sg35
F0.0
sg36
F0.07599999999999996
sg37
F0.16900000000000004
sg38
F-0.008000000000000007
sg39
F0.006999999999999895
sg40
F0.020000000000000018
sg41
F0.0
sg42
F0.0
sg43
F0.0
sg44
F0.09999999999999998
sg45
F0.0
sg46
F0.0
sg47
F0.0
sg48
F0.0
sg49
F0.06000000000000005
sg50
F0.136
sg51
F0.0
sg52
F0.0
sg53
F0.0
sg54
F0.0
sg55
F0.0
sg56
F0.0
sg57
F0.0
sg58
F0.0
sg59
F0.0
sg60
F0.0
sg61
F0.0
sg62
F0.0
sg63
F0.0
sg64
F0.0
sg65
F0.0
sg66
F0.0
sg67
F0.0030000000000000027
sg68
F-0.013999999999999901
sg69
F-0.013000000000000012
sg70
F0.0
sg71
F0.0040000000000000036
sg72
F0.0
sg73
F0.0
sg74
F0.0
sg75
F0.0
sg76
F0.0
sg77
F0.0
sg78
F0.0
sg79
F0.0
sg80
F0.0
sg81
F0.0
sg82
F0.0
sg83
F0.0
sg84
F0.0
sg85
F0.0
sg86
F0.0
sg87
F0.0
sg88
F0.0
sg89
F0.07199999999999995
sg90
F0.0
sg91
F0.016999999999999904
sg92
F0.03600000000000003
sg93
F0.0030000000000000027
sg94
F0.03400000000000003
sg95
F-0.018999999999999906
sg96
F0.0
sg97
F0.0
sg98
F0.0
sg99
F0.0
ss(S'VB08'
p164
S'VB09'
p165
tp166
(dp167
g5
F-0.01200000000000001
sg6
F0.05399999999999999
sg7
F0.10299999999999998
sg8
F-0.006000000000000005
sg9
F0.0
sg10
F0.0
sg11
F0.0020000000000000018
sg12
F0.0
sg13
F0.0
sg14
F0.0
sg15
F0.0
sg16
F0.0
sg17
F0.0
sg18
F0.0
sg19
F-0.01100000000000001
sg20
F0.006000000000000005
sg21
F0.0
sg22
F0.0
sg23
F0.027999999999999914
sg24
F0.09899999999999998
sg25
F0.017000000000000015
sg26
F0.07499999999999996
sg27
F-0.016000000000000014
sg28
F0.0
sg29
F0.0
sg30
F-0.014000000000000012
sg31
F0.0
sg32
F0.0
sg33
F0.0
sg34
F0.119
sg35
F0.0
sg36
F0.09599999999999997
sg37
F0.06399999999999995
sg38
F0.008000000000000007
sg39
F0.0019999999999998908
sg40
F-0.0129999999999999
sg41
F0.0
sg42
F0.0
sg43
F0.0
sg44
F0.10099999999999998
sg45
F0.0
sg46
F0.0
sg47
F0.0
sg48
F0.0
sg49
F0.10399999999999998
sg50
F0.04400000000000004
sg51
F0.0
sg52
F0.0
sg53
F0.0
sg54
F0.0
sg55
F0.0
sg56
F0.0
sg57
F0.0
sg58
F0.0
sg59
F0.0
sg60
F0.0
sg61
F0.0
sg62
F0.0
sg63
F0.0
sg64
F0.0
sg65
F0.0
sg66
F0.0
sg67
F-0.009000000000000008
sg68
F-0.0030000000000000027
sg69
F0.0
sg70
F0.0
sg71
F-0.0050000000000000044
sg72
F0.0
sg73
F0.0
sg74
F0.0
sg75
F0.0
sg76
F0.0
sg77
F0.0
sg78
F0.0
sg79
F0.0
sg80
F0.0
sg81
F0.0
sg82
F0.0
sg83
F0.0
sg84
F0.0
sg85
F0.0
sg86
F0.0
sg87
F0.0
sg88
F0.0
sg89
F0.08599999999999997
sg90
F0.0
sg91
F0.030999999999999917
sg92
F0.04899999999999993
sg93
F-0.013999999999999901
sg94
F0.01200000000000001
sg95
F0.0030000000000000027
sg96
F0.0
sg97
F0.0
sg98
F0.0
sg99
F0.0
ss(S'VA10'
p168
S'VD11'
p169
tp170
(dp171
g5
F-0.01100000000000001
sg6
F0.062
sg7
F0.1419999999999999
sg8
F-0.020999999999999908
sg9
F0.0
sg10
F0.0
sg11
F-0.026000000000000023
sg12
F0.0
sg13
F0.0
sg14
F0.0
sg15
F0.0
sg16
F0.0
sg17
F0.0
sg18
F0.0
sg19
F-0.0050000000000000044
sg20
F0.010000000000000009
sg21
F0.0
sg22
F0.0
sg23
F0.013999999999999901
sg24
F0.118
sg25
F0.03400000000000003
sg26
F0.04400000000000004
sg27
F0.013999999999999901
sg28
F0.0
sg29
F0.0
sg30
F0.005999999999999894
sg31
F0.0
sg32
F0.0
sg33
F0.0
sg34
F0.051000000000000045
sg35
F0.0
sg36
F0.17300000000000004
sg37
F0.040000000000000036
sg38
F-0.010000000000000009
sg39
F-0.0010000000000000009
sg40
F-0.02499999999999991
sg41
F0.0
sg42
F0.0
sg43
F0.0
sg44
F0.041000000000000036
sg45
F0.0
sg46
F0.0
sg47
F0.0
sg48
F0.0
sg49
F0.16600000000000004
sg50
F0.03400000000000003
sg51
F0.0
sg52
F0.0
sg53
F0.0
sg54
F0.0
sg55
F0.0
sg56
F0.0
sg57
F0.0
sg58
F0.0
sg59
F0.0
sg60
F0.0
sg61
F0.0
sg62
F0.0
sg63
F0.0
sg64
F0.0
sg65
F0.0
sg66
F0.0
sg67
F0.027000000000000024
sg68
F-0.0050000000000000044
sg69
F-0.01200000000000001
sg70
F0.0
sg71
F-0.009000000000000008
sg72
F0.0
sg73
F0.0
sg74
F0.0
sg75
F0.0
sg76
F0.0
sg77
F0.0
sg78
F0.0
sg79
F0.0
sg80
F0.0
sg81
F0.0
sg82
F0.0
sg83
F0.0
sg84
F0.0
sg85
F0.0
sg86
F0.0
sg87
F0.0
sg88
F0.0
sg89
F0.06899999999999995
sg90
F0.0
sg91
F0.009999999999999898
sg92
F0.04999999999999993
sg93
F0.0010000000000000009
sg94
F0.02400000000000002
sg95
F-0.0050000000000000044
sg96
F0.0
sg97
F0.0
sg98
F0.0
sg99
F0.0
ss(S'AVBL'
p172
S'DVB'
p173
tp174
(dp175
g5
F0.07799999999999996
sg6
F0.04299999999999998
sg7
F0.0020000000000000018
sg8
F0.015000000000000013
sg9
F0.0
sg10
F0.0
sg11
F0.017000000000000015
sg12
F0.0
sg13
F0.0
sg14
F0.0
sg15
F0.0
sg16
F0.0
sg17
F0.0
sg18
F0.0
sg19
F-0.006000000000000005
sg20
F0.07999999999999996
sg21
F0.0
sg22
F0.0
sg23
F0.015999999999999903
sg24
F-0.02200000000000002
sg25
F0.016000000000000014
sg26
F0.0
sg27
F-0.0040000000000000036
sg28
F0.0
sg29
F0.0
sg30
F0.11099999999999999
sg31
F0.0
sg32
F0.0
sg33
F0.0
sg34
F0.0
sg35
F0.0
sg36
F0.0
sg37
F0.0
sg38
F0.07199999999999995
sg39
F0.1519999999999999
sg40
F0.010000000000000009
sg41
F0.0
sg42
F0.0
sg43
F0.0
sg44
F0.0
sg45
F0.0
sg46
F0.0
sg47
F0.0
sg48
F0.0
sg49
F0.0
sg50
F0.0
sg51
F0.0
sg52
F0.0
sg53
F0.0
sg54
F0.0
sg55
F0.0
sg56
F0.0
sg57
F0.0
sg58
F0.0
sg59
F0.0
sg60
F0.0
sg61
F0.0
sg62
F0.0
sg63
F0.0
sg64
F0.0
sg65
F0.0
sg66
F0.0
sg67
F0.07300000000000006
sg68
F0.132
sg69
F0.07499999999999996
sg70
F0.0
sg71
F0.09199999999999997
sg72
F0.0
sg73
F0.0
sg74
F0.0
sg75
F0.0
sg76
F0.0
sg77
F0.0
sg78
F0.0
sg79
F0.0
sg80
F0.0
sg81
F0.0
sg82
F0.0
sg83
F0.0
sg84
F0.0
sg85
F0.0
sg86
F0.0
sg87
F0.0
sg88
F0.0
sg89
F0.0
sg90
F0.0
sg91
F-0.02300000000000002
sg92
F0.015000000000000013
sg93
F0.062000000000000055
sg94
F0.019000000000000017
sg95
F-0.02499999999999991
sg96
F0.0
sg97
F0.0
sg98
F0.0
sg99
F0.0
ss(S'DVB'
p176
S'VD11'
p177
tp178
(dp179
g5
F0.06899999999999995
sg6
F0.05099999999999999
sg7
F0.02199999999999991
sg8
F-0.007000000000000006
sg9
F0.0
sg10
F0.0
sg11
F0.017000000000000015
sg12
F0.0
sg13
F0.0
sg14
F0.0
sg15
F0.0
sg16
F0.0
sg17
F0.0
sg18
F0.0
sg19
F0.019000000000000017
sg20
F0.04299999999999993
sg21
F0.0
sg22
F0.0
sg23
F0.0119999999999999
sg24
F0.025999999999999912
sg25
F0.04400000000000004
sg26
F0.01100000000000001
sg27
F-0.007000000000000006
sg28
F0.0
sg29
F0.0
sg30
F0.07399999999999995
sg31
F0.0
sg32
F0.0
sg33
F0.0
sg34
F0.006000000000000005
sg35
F0.0
sg36
F0.04600000000000004
sg37
F0.009000000000000008
sg38
F0.03400000000000003
sg39
F0.1419999999999999
sg40
F0.03700000000000003
sg41
F0.0
sg42
F0.0
sg43
F0.0
sg44
F0.006000000000000005
sg45
F0.0
sg46
F0.0
sg47
F0.0
sg48
F0.0
sg49
F0.03600000000000003
sg50
F0.0020000000000000018
sg51
F0.0
sg52
F0.0
sg53
F0.0
sg54
F0.0
sg55
F0.0
sg56
F0.0
sg57
F0.0
sg58
F0.0
sg59
F0.0
sg60
F0.0
sg61
F0.0
sg62
F0.0
sg63
F0.0
sg64
F0.0
sg65
F0.0
sg66
F0.0
sg67
F0.06300000000000006
sg68
F0.119
sg69
F0.03699999999999992
sg70
F0.0
sg71
F0.06699999999999995
sg72
F0.0
sg73
F0.0
sg74
F0.0
sg75
F0.0
sg76
F0.0
sg77
F0.0
sg78
F0.0
sg79
F0.0
sg80
F0.0
sg81
F0.0
sg82
F0.0
sg83
F0.0
sg84
F0.0
sg85
F0.0
sg86
F0.0
sg87
F0.0
sg88
F0.0
sg89
F0.008000000000000007
sg90
F0.0
sg91
F0.0
sg92
F0.0020000000000000018
sg93
F0.049000000000000044
sg94
F-0.015000000000000013
sg95
F-0.02199999999999991
sg96
F0.0
sg97
F0.0
sg98
F0.0
sg99
F0.0
ss(S'VB09'
p180
S'VB10'
p181
tp182
(dp183
g5
F-0.008000000000000007
sg6
F0.055999999999999994
sg7
F0.15599999999999992
sg8
F-0.017999999999999905
sg9
F0.0
sg10
F0.0
sg11
F-0.0040000000000000036
sg12
F0.0
sg13
F0.0
sg14
F0.0
sg15
F0.0
sg16
F0.0
sg17
F0.0
sg18
F0.0
sg19
F-0.03699999999999992
sg20
F0.01200000000000001
sg21
F0.0
sg22
F0.0
sg23
F0.052999999999999936
sg24
F0.12
sg25
F0.05300000000000005
sg26
F0.05300000000000005
sg27
F-0.01100000000000001
sg28
F0.0
sg29
F0.0
sg30
F0.016999999999999904
sg31
F0.0
sg32
F0.0
sg33
F0.0
sg34
F0.02400000000000002
sg35
F0.0
sg36
F0.21499999999999997
sg37
F0.013000000000000012
sg38
F-0.010000000000000009
sg39
F0.007999999999999896
sg40
F-0.017999999999999905
sg41
F0.0
sg42
F0.0
sg43
F0.0
sg44
F0.029000000000000026
sg45
F0.0
sg46
F0.0
sg47
F0.0
sg48
F0.0
sg49
F0.14300000000000002
sg50
F0.010000000000000009
sg51
F0.0
sg52
F0.0
sg53
F0.0
sg54
F0.0
sg55
F0.0
sg56
F0.0
sg57
F0.0
sg58
F0.0
sg59
F0.0
sg60
F0.0
sg61
F0.0
sg62
F0.0
sg63
F0.0
sg64
F0.0
sg65
F0.0
sg66
F0.0
sg67
F-0.0020000000000000018
sg68
F-0.017999999999999905
sg69
F-0.013000000000000012
sg70
F0.0
sg71
F-0.006000000000000005
sg72
F0.0
sg73
F0.0
sg74
F0.0
sg75
F0.0
sg76
F0.0
sg77
F0.0
sg78
F0.0
sg79
F0.0
sg80
F0.0
sg81
F0.0
sg82
F0.0
sg83
F0.0
sg84
F0.0
sg85
F0.0
sg86
F0.0
sg87
F0.0
sg88
F0.0
sg89
F0.07799999999999996
sg90
F0.0
sg91
F0.0119999999999999
sg92
F0.051999999999999935
sg93
F-0.006000000000000005
sg94
F0.038000000000000034
sg95
F0.009000000000000008
sg96
F0.0
sg97
F0.0
sg98
F0.0
sg99
F0.0
ss(S'DVB'
p184
S'VB10'
p185
tp186
(dp187
g5
F0.07799999999999996
sg6
F0.027000000000000024
sg7
F0.018999999999999906
sg8
F-0.009999999999999898
sg9
F0.0
sg10
F0.0
sg11
F-0.014000000000000012
sg12
F0.0
sg13
F0.0
sg14
F0.0
sg15
F0.0
sg16
F0.0
sg17
F0.0
sg18
F0.0
sg19
F0.014000000000000012
sg20
F0.06299999999999994
sg21
F0.0
sg22
F0.0
sg23
F0.0020000000000000018
sg24
F0.02499999999999991
sg25
F0.02200000000000002
sg26
F0.007000000000000006
sg27
F0.009999999999999898
sg28
F0.0
sg29
F0.0
sg30
F0.07299999999999995
sg31
F0.0
sg32
F0.0
sg33
F0.0
sg34
F0.008000000000000007
sg35
F0.0
sg36
F0.03300000000000003
sg37
F0.008000000000000007
sg38
F0.05599999999999994
sg39
F0.1349999999999999
sg40
F-0.008999999999999897
sg41
F0.0
sg42
F0.0
sg43
F0.0
sg44
F0.008000000000000007
sg45
F0.0
sg46
F0.0
sg47
F0.0
sg48
F0.0
sg49
F0.038000000000000034
sg50
F0.0040000000000000036
sg51
F0.0
sg52
F0.0
sg53
F0.0
sg54
F0.0
sg55
F0.0
sg56
F0.0
sg57
F0.0
sg58
F0.0
sg59
F0.0
sg60
F0.0
sg61
F0.0
sg62
F0.0
sg63
F0.0
sg64
F0.0
sg65
F0.0
sg66
F0.0
sg67
F0.049000000000000044
sg68
F0.131
sg69
F0.052999999999999936
sg70
F0.0
sg71
F0.08199999999999996
sg72
F0.0
sg73
F0.0
sg74
F0.0
sg75
F0.0
sg76
F0.0
sg77
F0.0
sg78
F0.0
sg79
F0.0
sg80
F0.0
sg81
F0.0
sg82
F0.0
sg83
F0.0
sg84
F0.0
sg85
F0.0
sg86
F0.0
sg87
F0.0
sg88
F0.0
sg89
F0.01100000000000001
sg90
F0.0
sg91
F0.013999999999999901
sg92
F-0.0030000000000000027
sg93
F0.04300000000000004
sg94
F0.02300000000000002
sg95
F0.0
sg96
F0.0
sg97
F0.0
sg98
F0.0
sg99
F0.0
ss(S'VA10'
p188
S'VD09'
p189
tp190
(dp191
g5
F-0.016000000000000014
sg6
F0.04999999999999999
sg7
F0.05899999999999994
sg8
F-0.03199999999999992
sg9
F0.0
sg10
F0.0
sg11
F-0.02300000000000002
sg12
F0.0
sg13
F0.0
sg14
F0.0
sg15
F0.0
sg16
F0.0
sg17
F0.0
sg18
F0.0
sg19
F0.020000000000000018
sg20
F0.010000000000000009
sg21
F0.0
sg22
F0.0
sg23
F0.019999999999999907
sg24
F0.04599999999999993
sg25
F0.05500000000000005
sg26
F0.031000000000000028
sg27
F-0.02300000000000002
sg28
F0.0
sg29
F0.0
sg30
F0.0
sg31
F0.0
sg32
F0.0
sg33
F0.0
sg34
F0.124
sg35
F0.0
sg36
F0.05500000000000005
sg37
F0.21099999999999997
sg38
F-0.006000000000000005
sg39
F0.004999999999999893
sg40
F-0.03799999999999992
sg41
F0.0
sg42
F0.0
sg43
F0.0
sg44
F0.10999999999999999
sg45
F0.0
sg46
F0.0
sg47
F0.0
sg48
F0.0
sg49
F0.049000000000000044
sg50
F0.20199999999999996
sg51
F0.0
sg52
F0.0
sg53
F0.0
sg54
F0.0
sg55
F0.0
sg56
F0.0
sg57
F0.0
sg58
F0.0
sg59
F0.0
sg60
F0.0
sg61
F0.0
sg62
F0.0
sg63
F0.0
sg64
F0.0
sg65
F0.0
sg66
F0.0
sg67
F0.018000000000000016
sg68
F-0.007000000000000006
sg69
F0.0020000000000000018
sg70
F0.0
sg71
F-0.0010000000000000009
sg72
F0.0
sg73
F0.0
sg74
F0.0
sg75
F0.0
sg76
F0.0
sg77
F0.0
sg78
F0.0
sg79
F0.0
sg80
F0.0
sg81
F0.0
sg82
F0.0
sg83
F0.0
sg84
F0.0
sg85
F0.0
sg86
F0.0
sg87
F0.0
sg88
F0.0
sg89
F0.041000000000000036
sg90
F0.0
sg91
F-0.0040000000000000036
sg92
F0.02400000000000002
sg93
F-0.0129999999999999
sg94
F0.06300000000000006
sg95
F-0.03199999999999992
sg96
F0.0
sg97
F0.0
sg98
F0.0
sg99
F0.0
ss(S'VA09'
p192
S'VD11'
p193
tp194
(dp195
g5
F-0.008000000000000007
sg6
F0.04999999999999999
sg7
F0.11299999999999999
sg8
F-0.0129999999999999
sg9
F0.0
sg10
F0.0
sg11
F-0.025000000000000022
sg12
F0.0
sg13
F0.0
sg14
F0.0
sg15
F0.0
sg16
F0.0
sg17
F0.0
sg18
F0.0
sg19
F-0.02100000000000002
sg20
F0.015999999999999903
sg21
F0.0
sg22
F0.0
sg23
F0.05399999999999994
sg24
F0.11099999999999999
sg25
F0.03700000000000003
sg26
F0.03400000000000003
sg27
F0.0
sg28
F0.0
sg29
F0.0
sg30
F0.016999999999999904
sg31
F0.0
sg32
F0.0
sg33
F0.0
sg34
F0.03400000000000003
sg35
F0.0
sg36
F0.18100000000000005
sg37
F0.07899999999999996
sg38
F-0.02100000000000002
sg39
F0.0019999999999998908
sg40
F0.017000000000000015
sg41
F0.0
sg42
F0.0
sg43
F0.0
sg44
F0.03600000000000003
sg45
F0.0
sg46
F0.0
sg47
F0.0
sg48
F0.0
sg49
F0.14700000000000002
sg50
F0.06799999999999995
sg51
F0.0
sg52
F0.0
sg53
F0.0
sg54
F0.0
sg55
F0.0
sg56
F0.0
sg57
F0.0
sg58
F0.0
sg59
F0.0
sg60
F0.0
sg61
F0.0
sg62
F0.0
sg63
F0.0
sg64
F0.0
sg65
F0.0
sg66
F0.0
sg67
F0.007000000000000006
sg68
F-0.0010000000000000009
sg69
F-0.015000000000000013
sg70
F0.0
sg71
F-0.0040000000000000036
sg72
F0.0
sg73
F0.0
sg74
F0.0
sg75
F0.0
sg76
F0.0
sg77
F0.0
sg78
F0.0
sg79
F0.0
sg80
F0.0
sg81
F0.0
sg82
F0.0
sg83
F0.0
sg84
F0.0
sg85
F0.0
sg86
F0.0
sg87
F0.0
sg88
F0.0
sg89
F0.05900000000000005
sg90
F0.0
sg91
F0.02199999999999991
sg92
F0.025000000000000022
sg93
F-0.0030000000000000027
sg94
F0.02400000000000002
sg95
F-0.02199999999999991
sg96
F0.0
sg97
F0.0
sg98
F0.0
sg99
F0.0
ss(S'VA10'
p196
S'VB10'
p197
tp198
(dp199
g5
F-0.0010000000000000009
sg6
F0.027000000000000024
sg7
F0.11499999999999999
sg8
F-0.039999999999999925
sg9
F0.0
sg10
F0.0
sg11
F0.006000000000000005
sg12
F0.0
sg13
F0.0
sg14
F0.0
sg15
F0.0
sg16
F0.0
sg17
F0.0
sg18
F0.0
sg19
F-0.040999999999999925
sg20
F0.013000000000000012
sg21
F0.0
sg22
F0.0
sg23
F0.018999999999999906
sg24
F0.09399999999999997
sg25
F0.050000000000000044
sg26
F0.050000000000000044
sg27
F0.0020000000000000018
sg28
F0.0
sg29
F0.0
sg30
F0.005999999999999894
sg31
F0.0
sg32
F0.0
sg33
F0.0
sg34
F0.06899999999999995
sg35
F0.0
sg36
F0.16400000000000003
sg37
F0.05300000000000005
sg38
F-0.007000000000000006
sg39
F0.0039999999999998925
sg40
F-0.0019999999999998908
sg41
F0.0
sg42
F0.0
sg43
F0.0
sg44
F0.05300000000000005
sg45
F0.0
sg46
F0.0
sg47
F0.0
sg48
F0.0
sg49
F0.15000000000000002
sg50
F0.050000000000000044
sg51
F0.0
sg52
F0.0
sg53
F0.0
sg54
F0.0
sg55
F0.0
sg56
F0.0
sg57
F0.0
sg58
F0.0
sg59
F0.0
sg60
F0.0
sg61
F0.0
sg62
F0.0
sg63
F0.0
sg64
F0.0
sg65
F0.0
sg66
F0.0
sg67
F0.019000000000000017
sg68
F-0.010999999999999899
sg69
F-0.013000000000000012
sg70
F0.0
sg71
F-0.0050000000000000044
sg72
F0.0
sg73
F0.0
sg74
F0.0
sg75
F0.0
sg76
F0.0
sg77
F0.0
sg78
F0.0
sg79
F0.0
sg80
F0.0
sg81
F0.0
sg82
F0.0
sg83
F0.0
sg84
F0.0
sg85
F0.0
sg86
F0.0
sg87
F0.0
sg88
F0.0
sg89
F0.06499999999999995
sg90
F0.0
sg91
F0.0
sg92
F0.06599999999999995
sg93
F-0.0040000000000000036
sg94
F0.030000000000000027
sg95
F0.019000000000000017
sg96
F0.0
sg97
F0.0
sg98
F0.0
sg99
F0.0
ss(S'VA10'
p200
S'VB08'
p201
tp202
(dp203
g5
F-0.01100000000000001
sg6
F0.03799999999999998
sg7
F0.07399999999999995
sg8
F-0.010999999999999899
sg9
F0.0
sg10
F0.0
sg11
F0.010000000000000009
sg12
F0.0
sg13
F0.0
sg14
F0.0
sg15
F0.0
sg16
F0.0
sg17
F0.0
sg18
F0.0
sg19
F-0.020000000000000018
sg20
F0.008000000000000007
sg21
F0.0
sg22
F0.0
sg23
F0.03599999999999992
sg24
F0.07899999999999996
sg25
F0.016000000000000014
sg26
F0.04700000000000004
sg27
F-0.0030000000000000027
sg28
F0.0
sg29
F0.0
sg30
F0.0
sg31
F0.0
sg32
F0.0
sg33
F0.0
sg34
F0.14800000000000002
sg35
F0.0
sg36
F0.04700000000000004
sg37
F0.17700000000000005
sg38
F-0.008000000000000007
sg39
F0.008999999999999897
sg40
F-0.004999999999999893
sg41
F0.0
sg42
F0.0
sg43
F0.0
sg44
F0.119
sg45
F0.0
sg46
F0.0
sg47
F0.0
sg48
F0.0
sg49
F0.05700000000000005
sg50
F0.15700000000000003
sg51
F0.0
sg52
F0.0
sg53
F0.0
sg54
F0.0
sg55
F0.0
sg56
F0.0
sg57
F0.0
sg58
F0.0
sg59
F0.0
sg60
F0.0
sg61
F0.0
sg62
F0.0
sg63
F0.0
sg64
F0.0
sg65
F0.0
sg66
F0.0
sg67
F0.01200000000000001
sg68
F-0.009000000000000008
sg69
F-0.0050000000000000044
sg70
F0.0
sg71
F-0.006000000000000005
sg72
F0.0
sg73
F0.0
sg74
F0.0
sg75
F0.0
sg76
F0.0
sg77
F0.0
sg78
F0.0
sg79
F0.0
sg80
F0.0
sg81
F0.0
sg82
F0.0
sg83
F0.0
sg84
F0.0
sg85
F0.0
sg86
F0.0
sg87
F0.0
sg88
F0.0
sg89
F0.05700000000000005
sg90
F0.0
sg91
F-0.03300000000000003
sg92
F0.02200000000000002
sg93
F-0.010000000000000009
sg94
F0.02400000000000002
sg95
F-0.015999999999999903
sg96
F0.0
sg97
F0.0
sg98
F0.0
sg99
F0.0
ss(S'VA11'
p204
S'VB09'
p205
tp206
(dp207
g5
F-0.01100000000000001
sg6
F0.03300000000000003
sg7
F0.1509999999999999
sg8
F-0.016999999999999904
sg9
F0.0
sg10
F0.0
sg11
F0.009000000000000008
sg12
F0.0
sg13
F0.0
sg14
F0.0
sg15
F0.0
sg16
F0.0
sg17
F0.0
sg18
F0.0
sg19
F0.006000000000000005
sg20
F0.025999999999999912
sg21
F0.0
sg22
F0.0
sg23
F0.018999999999999906
sg24
F0.1309999999999999
sg25
F0.049000000000000044
sg26
F0.07099999999999995
sg27
F0.020999999999999908
sg28
F0.0
sg29
F0.0
sg30
F0.0039999999999998925
sg31
F0.0
sg32
F0.0
sg33
F0.0
sg34
F0.03300000000000003
sg35
F0.0
sg36
F0.19099999999999995
sg37
F0.010000000000000009
sg38
F-0.014000000000000012
sg39
F-0.008000000000000007
sg40
F-0.018999999999999906
sg41
F0.0
sg42
F0.0
sg43
F0.0
sg44
F0.03300000000000003
sg45
F0.0
sg46
F0.0
sg47
F0.0
sg48
F0.0
sg49
F0.15600000000000003
sg50
F0.01100000000000001
sg51
F0.0
sg52
F0.0
sg53
F0.0
sg54
F0.0
sg55
F0.0
sg56
F0.0
sg57
F0.0
sg58
F0.0
sg59
F0.0
sg60
F0.0
sg61
F0.0
sg62
F0.0
sg63
F0.0
sg64
F0.0
sg65
F0.0
sg66
F0.0
sg67
F0.01200000000000001
sg68
F-0.010999999999999899
sg69
F-0.008000000000000007
sg70
F0.0
sg71
F-0.0050000000000000044
sg72
F0.0
sg73
F0.0
sg74
F0.0
sg75
F0.0
sg76
F0.0
sg77
F0.0
sg78
F0.0
sg79
F0.0
sg80
F0.0
sg81
F0.0
sg82
F0.0
sg83
F0.0
sg84
F0.0
sg85
F0.0
sg86
F0.0
sg87
F0.0
sg88
F0.0
sg89
F0.06999999999999995
sg90
F0.0
sg91
F0.014999999999999902
sg92
F0.039000000000000035
sg93
F-0.0119999999999999
sg94
F0.04600000000000004
sg95
F-0.030999999999999917
sg96
F0.0
sg97
F0.0
sg98
F0.0
sg99
F0.0
ss(S'DVB'
p208
S'VB08'
p209
tp210
(dp211
g5
F0.07399999999999995
sg6
F0.04999999999999999
sg7
F0.019999999999999907
sg8
F-0.010999999999999899
sg9
F0.0
sg10
F0.0
sg11
F-0.0010000000000000009
sg12
F0.0
sg13
F0.0
sg14
F0.0
sg15
F0.0
sg16
F0.0
sg17
F0.0
sg18
F0.0
sg19
F-0.01100000000000001
sg20
F0.06899999999999995
sg21
F0.0
sg22
F0.0
sg23
F0.0
sg24
F-0.01200000000000001
sg25
F0.040000000000000036
sg26
F0.0050000000000000044
sg27
F0.007999999999999896
sg28
F0.0
sg29
F0.0
sg30
F0.07499999999999996
sg31
F0.0
sg32
F0.0
sg33
F0.0
sg34
F0.028000000000000025
sg35
F0.0
sg36
F0.016000000000000014
sg37
F0.028000000000000025
sg38
F0.041000000000000036
sg39
F0.1409999999999999
sg40
F0.010000000000000009
sg41
F0.0
sg42
F0.0
sg43
F0.0
sg44
F0.014000000000000012
sg45
F0.0
sg46
F0.0
sg47
F0.0
sg48
F0.0
sg49
F0.009000000000000008
sg50
F0.02200000000000002
sg51
F0.0
sg52
F0.0
sg53
F0.0
sg54
F0.0
sg55
F0.0
sg56
F0.0
sg57
F0.0
sg58
F0.0
sg59
F0.0
sg60
F0.0
sg61
F0.0
sg62
F0.0
sg63
F0.0
sg64
F0.0
sg65
F0.0
sg66
F0.0
sg67
F0.028000000000000025
sg68
F0.134
sg69
F0.05799999999999994
sg70
F0.0
sg71
F0.08599999999999997
sg72
F0.0
sg73
F0.0
sg74
F0.0
sg75
F0.0
sg76
F0.0
sg77
F0.0
sg78
F0.0
sg79
F0.0
sg80
F0.0
sg81
F0.0
sg82
F0.0
sg83
F0.0
sg84
F0.0
sg85
F0.0
sg86
F0.0
sg87
F0.0
sg88
F0.0
sg89
F0.010000000000000009
sg90
F0.0
sg91
F-0.017000000000000015
sg92
F0.0040000000000000036
sg93
F0.06600000000000006
sg94
F0.013000000000000012
sg95
F0.0030000000000000027
sg96
F0.0
sg97
F0.0
sg98
F0.0
sg99
F0.0
ss(S'VA11'
p212
S'VB10'
p213
tp214
(dp215
g5
F-0.019000000000000017
sg6
F0.07200000000000001
sg7
F0.19699999999999995
sg8
F-0.019999999999999907
sg9
F0.0
sg10
F0.0
sg11
F-0.04199999999999998
sg12
F0.0
sg13
F0.0
sg14
F0.0
sg15
F0.0
sg16
F0.0
sg17
F0.0
sg18
F0.0
sg19
F-0.007000000000000006
sg20
F0.009000000000000008
sg21
F0.0
sg22
F0.0
sg23
F0.03599999999999992
sg24
F0.17899999999999994
sg25
F0.04600000000000004
sg26
F0.0
sg27
F0.008999999999999897
sg28
F0.0
sg29
F0.0
sg30
F-0.019000000000000017
sg31
F0.0
sg32
F0.0
sg33
F0.0
sg34
F0.0
sg35
F0.0
sg36
F0.24
sg37
F0.0
sg38
F-0.0050000000000000044
sg39
F0.010999999999999899
sg40
F0.0050000000000000044
sg41
F0.0
sg42
F0.0
sg43
F0.0
sg44
F0.0
sg45
F0.0
sg46
F0.0
sg47
F0.0
sg48
F0.0
sg49
F0.24
sg50
F0.0
sg51
F0.0
sg52
F0.0
sg53
F0.0
sg54
F0.0
sg55
F0.0
sg56
F0.0
sg57
F0.0
sg58
F0.0
sg59
F0.0
sg60
F0.0
sg61
F0.0
sg62
F0.0
sg63
F0.0
sg64
F0.0
sg65
F0.0
sg66
F0.0
sg67
F0.0040000000000000036
sg68
F-0.0129999999999999
sg69
F-0.0040000000000000036
sg70
F0.0
sg71
F0.0040000000000000036
sg72
F0.0
sg73
F0.0
sg74
F0.0
sg75
F0.0
sg76
F0.0
sg77
F0.0
sg78
F0.0
sg79
F0.0
sg80
F0.0
sg81
F0.0
sg82
F0.0
sg83
F0.0
sg84
F0.0
sg85
F0.0
sg86
F0.0
sg87
F0.0
sg88
F0.0
sg89
F0.0
sg90
F0.0
sg91
F0.009999999999999898
sg92
F0.04300000000000004
sg93
F0.0010000000000000009
sg94
F0.020000000000000018
sg95
F0.0030000000000000027
sg96
F0.0
sg97
F0.0
sg98
F0.0
sg99
F0.0
ss(S'VA11'
p216
S'VD11'
p217
tp218
(dp219
g5
F-0.01200000000000001
sg6
F0.006000000000000005
sg7
F0.22099999999999997
sg8
F-0.027999999999999914
sg9
F0.0
sg10
F0.0
sg11
F0.008000000000000007
sg12
F0.0
sg13
F0.0
sg14
F0.0
sg15
F0.0
sg16
F0.0
sg17
F0.0
sg18
F0.0
sg19
F-0.017000000000000015
sg20
F0.0040000000000000036
sg21
F0.0
sg22
F0.0
sg23
F-0.015000000000000013
sg24
F0.1449999999999999
sg25
F0.07900000000000007
sg26
F0.0
sg27
F0.019999999999999907
sg28
F0.0
sg29
F0.0
sg30
F0.0039999999999998925
sg31
F0.0
sg32
F0.0
sg33
F0.0
sg34
F0.0
sg35
F0.0
sg36
F0.254
sg37
F0.0
sg38
F0.009000000000000008
sg39
F0.0029999999999998916
sg40
F-0.0010000000000000009
sg41
F0.0
sg42
F0.0
sg43
F0.0
sg44
F0.0
sg45
F0.0
sg46
F0.0
sg47
F0.0
sg48
F0.0
sg49
F0.21899999999999997
sg50
F0.0
sg51
F0.0
sg52
F0.0
sg53
F0.0
sg54
F0.0
sg55
F0.0
sg56
F0.0
sg57
F0.0
sg58
F0.0
sg59
F0.0
sg60
F0.0
sg61
F0.0
sg62
F0.0
sg63
F0.0
sg64
F0.0
sg65
F0.0
sg66
F0.0
sg67
F-0.0030000000000000027
sg68
F-0.014999999999999902
sg69
F0.0020000000000000018
sg70
F0.0
sg71
F-0.009000000000000008
sg72
F0.0
sg73
F0.0
sg74
F0.0
sg75
F0.0
sg76
F0.0
sg77
F0.0
sg78
F0.0
sg79
F0.0
sg80
F0.0
sg81
F0.0
sg82
F0.0
sg83
F0.0
sg84
F0.0
sg85
F0.0
sg86
F0.0
sg87
F0.0
sg88
F0.0
sg89
F0.0
sg90
F0.0
sg91
F-0.0010000000000000009
sg92
F0.07799999999999996
sg93
F0.01200000000000001
sg94
F0.02300000000000002
sg95
F0.014000000000000012
sg96
F0.0
sg97
F0.0
sg98
F0.0
sg99
F0.0
ss(S'VA10'
p220
S'VD10'
p221
tp222
(dp223
g5
F-0.01100000000000001
sg6
F0.04199999999999998
sg7
F0.06099999999999994
sg8
F-0.025999999999999912
sg9
F0.0
sg10
F0.0
sg11
F0.0040000000000000036
sg12
F0.0
sg13
F0.0
sg14
F0.0
sg15
F0.0
sg16
F0.0
sg17
F0.0
sg18
F0.0
sg19
F-0.02400000000000002
sg20
F-0.0020000000000000018
sg21
F0.0
sg22
F0.0
sg23
F-0.0030000000000000027
sg24
F0.08099999999999996
sg25
F0.06000000000000005
sg26
F0.05400000000000005
sg27
F0.013999999999999901
sg28
F0.0
sg29
F0.0
sg30
F-0.0040000000000000036
sg31
F0.0
sg32
F0.0
sg33
F0.0
sg34
F0.16200000000000003
sg35
F0.0
sg36
F0.08299999999999996
sg37
F0.135
sg38
F0.0
sg39
F0.007999999999999896
sg40
F0.013000000000000012
sg41
F0.0
sg42
F0.0
sg43
F0.0
sg44
F0.11499999999999999
sg45
F0.0
sg46
F0.0
sg47
F0.0
sg48
F0.0
sg49
F0.08099999999999996
sg50
F0.07499999999999996
sg51
F0.0
sg52
F0.0
sg53
F0.0
sg54
F0.0
sg55
F0.0
sg56
F0.0
sg57
F0.0
sg58
F0.0
sg59
F0.0
sg60
F0.0
sg61
F0.0
sg62
F0.0
sg63
F0.0
sg64
F0.0
sg65
F0.0
sg66
F0.0
sg67
F0.02100000000000002
sg68
F-0.013999999999999901
sg69
F-0.013000000000000012
sg70
F0.0
sg71
F-0.008000000000000007
sg72
F0.0
sg73
F0.0
sg74
F0.0
sg75
F0.0
sg76
F0.0
sg77
F0.0
sg78
F0.0
sg79
F0.0
sg80
F0.0
sg81
F0.0
sg82
F0.0
sg83
F0.0
sg84
F0.0
sg85
F0.0
sg86
F0.0
sg87
F0.0
sg88
F0.0
sg89
F0.06699999999999995
sg90
F0.0
sg91
F-0.0030000000000000027
sg92
F0.018000000000000016
sg93
F-0.010000000000000009
sg94
F0.03400000000000003
sg95
F-0.009999999999999898
sg96
F0.0
sg97
F0.0
sg98
F0.0
sg99
F0.0
ss(S'VB09'
p224
S'VD09'
p225
tp226
(dp227
g5
F-0.01200000000000001
sg6
F0.061
sg7
F0.07799999999999996
sg8
F0.007000000000000006
sg9
F0.0
sg10
F0.0
sg11
F0.019000000000000017
sg12
F0.0
sg13
F0.0
sg14
F0.0
sg15
F0.0
sg16
F0.0
sg17
F0.0
sg18
F0.0
sg19
F-0.006000000000000005
sg20
F0.015999999999999903
sg21
F0.0
sg22
F0.0
sg23
F0.027999999999999914
sg24
F0.07099999999999995
sg25
F0.03500000000000003
sg26
F0.06499999999999995
sg27
F0.0
sg28
F0.0
sg29
F0.0
sg30
F-0.01200000000000001
sg31
F0.0
sg32
F0.0
sg33
F0.0
sg34
F0.15300000000000002
sg35
F0.0
sg36
F0.08699999999999997
sg37
F0.10799999999999998
sg38
F-0.010000000000000009
sg39
F-0.006000000000000005
sg40
F-0.0010000000000000009
sg41
F0.0
sg42
F0.0
sg43
F0.0
sg44
F0.129
sg45
F0.0
sg46
F0.0
sg47
F0.0
sg48
F0.0
sg49
F0.07699999999999996
sg50
F0.06999999999999995
sg51
F0.0
sg52
F0.0
sg53
F0.0
sg54
F0.0
sg55
F0.0
sg56
F0.0
sg57
F0.0
sg58
F0.0
sg59
F0.0
sg60
F0.0
sg61
F0.0
sg62
F0.0
sg63
F0.0
sg64
F0.0
sg65
F0.0
sg66
F0.0
sg67
F0.017000000000000015
sg68
F-0.007000000000000006
sg69
F-0.017000000000000015
sg70
F0.0
sg71
F-0.0030000000000000027
sg72
F0.0
sg73
F0.0
sg74
F0.0
sg75
F0.0
sg76
F0.0
sg77
F0.0
sg78
F0.0
sg79
F0.0
sg80
F0.0
sg81
F0.0
sg82
F0.0
sg83
F0.0
sg84
F0.0
sg85
F0.0
sg86
F0.0
sg87
F0.0
sg88
F0.0
sg89
F0.07299999999999995
sg90
F0.0
sg91
F-0.009000000000000008
sg92
F0.03500000000000003
sg93
F-0.02399999999999991
sg94
F0.010000000000000009
sg95
F-0.03199999999999992
sg96
F0.0
sg97
F0.0
sg98
F0.0
sg99
F0.0
ss(S'AVBL'
p228
S'VD09'
p229
tp230
(dp231
g5
F0.07199999999999995
sg6
F0.04799999999999999
sg7
F0.02299999999999991
sg8
F-0.0040000000000000036
sg9
F0.0
sg10
F0.0
sg11
F-0.03199999999999997
sg12
F0.0
sg13
F0.0
sg14
F0.0
sg15
F0.0
sg16
F0.0
sg17
F0.0
sg18
F0.0
sg19
F-0.020000000000000018
sg20
F0.03699999999999992
sg21
F0.0
sg22
F0.0
sg23
F0.0010000000000000009
sg24
F-0.0020000000000000018
sg25
F0.013000000000000012
sg26
F0.009000000000000008
sg27
F-0.0020000000000000018
sg28
F0.0
sg29
F0.0
sg30
F0.06399999999999995
sg31
F0.0
sg32
F0.0
sg33
F0.0
sg34
F0.049000000000000044
sg35
F0.0
sg36
F0.016000000000000014
sg37
F0.06399999999999995
sg38
F0.020000000000000018
sg39
F0.123
sg40
F0.008000000000000007
sg41
F0.0
sg42
F0.0
sg43
F0.0
sg44
F0.028000000000000025
sg45
F0.0
sg46
F0.0
sg47
F0.0
sg48
F0.0
sg49
F0.02200000000000002
sg50
F0.061000000000000054
sg51
F0.0
sg52
F0.0
sg53
F0.0
sg54
F0.0
sg55
F0.0
sg56
F0.0
sg57
F0.0
sg58
F0.0
sg59
F0.0
sg60
F0.0
sg61
F0.0
sg62
F0.0
sg63
F0.0
sg64
F0.0
sg65
F0.0
sg66
F0.0
sg67
F0.039000000000000035
sg68
F0.15500000000000003
sg69
F0.03799999999999992
sg70
F0.0
sg71
F0.06499999999999995
sg72
F0.0
sg73
F0.0
sg74
F0.0
sg75
F0.0
sg76
F0.0
sg77
F0.0
sg78
F0.0
sg79
F0.0
sg80
F0.0
sg81
F0.0
sg82
F0.0
sg83
F0.0
sg84
F0.0
sg85
F0.0
sg86
F0.0
sg87
F0.0
sg88
F0.0
sg89
F0.016000000000000014
sg90
F0.0
sg91
F-0.0030000000000000027
sg92
F0.03300000000000003
sg93
F0.025000000000000022
sg94
F0.05600000000000005
sg95
F-0.02199999999999991
sg96
F0.0
sg97
F0.0
sg98
F0.0
sg99
F0.0
ss(S'AVBL'
p232
S'VA09'
p233
tp234
(dp235
g5
F0.04399999999999993
sg6
F0.059
sg7
F0.025999999999999912
sg8
F-0.007000000000000006
sg9
F0.0
sg10
F0.0
sg11
F-0.0040000000000000036
sg12
F0.0
sg13
F0.0
sg14
F0.0
sg15
F0.0
sg16
F0.0
sg17
F0.0
sg18
F0.0
sg19
F-0.026000000000000023
sg20
F0.03199999999999992
sg21
F0.0
sg22
F0.0
sg23
F-0.010000000000000009
sg24
F0.018999999999999906
sg25
F0.03400000000000003
sg26
F0.010000000000000009
sg27
F-0.019000000000000017
sg28
F0.0
sg29
F0.0
sg30
F0.07799999999999996
sg31
F0.0
sg32
F0.0
sg33
F0.0
sg34
F0.027000000000000024
sg35
F0.0
sg36
F0.027000000000000024
sg37
F0.08899999999999997
sg38
F0.01200000000000001
sg39
F0.1319999999999999
sg40
F-0.010999999999999899
sg41
F0.0
sg42
F0.0
sg43
F0.0
sg44
F0.025000000000000022
sg45
F0.0
sg46
F0.0
sg47
F0.0
sg48
F0.0
sg49
F0.019000000000000017
sg50
F0.09099999999999997
sg51
F0.0
sg52
F0.0
sg53
F0.0
sg54
F0.0
sg55
F0.0
sg56
F0.0
sg57
F0.0
sg58
F0.0
sg59
F0.0
sg60
F0.0
sg61
F0.0
sg62
F0.0
sg63
F0.0
sg64
F0.0
sg65
F0.0
sg66
F0.0
sg67
F0.06600000000000006
sg68
F0.1070000000000001
sg69
F0.050999999999999934
sg70
F0.0
sg71
F0.07599999999999996
sg72
F0.0
sg73
F0.0
sg74
F0.0
sg75
F0.0
sg76
F0.0
sg77
F0.0
sg78
F0.0
sg79
F0.0
sg80
F0.0
sg81
F0.0
sg82
F0.0
sg83
F0.0
sg84
F0.0
sg85
F0.0
sg86
F0.0
sg87
F0.0
sg88
F0.0
sg89
F0.018000000000000016
sg90
F0.0
sg91
F-0.0040000000000000036
sg92
F0.0020000000000000018
sg93
F0.020000000000000018
sg94
F0.026000000000000023
sg95
F-0.008999999999999897
sg96
F0.0
sg97
F0.0
sg98
F0.0
sg99
F0.0
ss(S'DVB'
p236
S'VA11'
p237
tp238
(dp239
g5
F0.07999999999999996
sg6
F0.067
sg7
F0.03399999999999992
sg8
F-0.019999999999999907
sg9
F0.0
sg10
F0.0
sg11
F-0.016000000000000014
sg12
F0.0
sg13
F0.0
sg14
F0.0
sg15
F0.0
sg16
F0.0
sg17
F0.0
sg18
F0.0
sg19
F0.008000000000000007
sg20
F0.04899999999999993
sg21
F0.0
sg22
F0.0
sg23
F-0.01100000000000001
sg24
F0.017999999999999905
sg25
F0.026000000000000023
sg26
F0.01200000000000001
sg27
F0.0030000000000000027
sg28
F0.0
sg29
F0.0
sg30
F0.07899999999999996
sg31
F0.0
sg32
F0.0
sg33
F0.0
sg34
F0.008000000000000007
sg35
F0.0
sg36
F0.039000000000000035
sg37
F0.008000000000000007
sg38
F0.029000000000000026
sg39
F0.11599999999999999
sg40
F-0.009999999999999898
sg41
F0.0
sg42
F0.0
sg43
F0.0
sg44
F0.009000000000000008
sg45
F0.0
sg46
F0.0
sg47
F0.0
sg48
F0.0
sg49
F0.04200000000000004
sg50
F0.0040000000000000036
sg51
F0.0
sg52
F0.0
sg53
F0.0
sg54
F0.0
sg55
F0.0
sg56
F0.0
sg57
F0.0
sg58
F0.0
sg59
F0.0
sg60
F0.0
sg61
F0.0
sg62
F0.0
sg63
F0.0
sg64
F0.0
sg65
F0.0
sg66
F0.0
sg67
F0.06500000000000006
sg68
F0.1100000000000001
sg69
F0.052999999999999936
sg70
F0.0
sg71
F0.07399999999999995
sg72
F0.0
sg73
F0.0
sg74
F0.0
sg75
F0.0
sg76
F0.0
sg77
F0.0
sg78
F0.0
sg79
F0.0
sg80
F0.0
sg81
F0.0
sg82
F0.0
sg83
F0.0
sg84
F0.0
sg85
F0.0
sg86
F0.0
sg87
F0.0
sg88
F0.0
sg89
F0.01100000000000001
sg90
F0.0
sg91
F0.009999999999999898
sg92
F0.015000000000000013
sg93
F0.05800000000000005
sg94
F0.03600000000000003
sg95
F-0.006000000000000005
sg96
F0.0
sg97
F0.0
sg98
F0.0
sg99
F0.0
ss(S'VB09'
p240
S'VD10'
p241
tp242
(dp243
g5
F-0.008000000000000007
sg6
F0.025000000000000022
sg7
F0.09899999999999998
sg8
F-0.027999999999999914
sg9
F0.0
sg10
F0.0
sg11
F-0.019000000000000017
sg12
F0.0
sg13
F0.0
sg14
F0.0
sg15
F0.0
sg16
F0.0
sg17
F0.0
sg18
F0.0
sg19
F0.02100000000000002
sg20
F0.020999999999999908
sg21
F0.0
sg22
F0.0
sg23
F0.018999999999999906
sg24
F0.08599999999999997
sg25
F0.03600000000000003
sg26
F0.08699999999999997
sg27
F0.015999999999999903
sg28
F0.0
sg29
F0.0
sg30
F0.006999999999999895
sg31
F0.0
sg32
F0.0
sg33
F0.0
sg34
F0.09599999999999997
sg35
F0.0
sg36
F0.127
sg37
F0.03700000000000003
sg38
F-0.015000000000000013
sg39
F0.006999999999999895
sg40
F0.015000000000000013
sg41
F0.0
sg42
F0.0
sg43
F0.0
sg44
F0.08299999999999996
sg45
F0.0
sg46
F0.0
sg47
F0.0
sg48
F0.0
sg49
F0.10299999999999998
sg50
F0.03300000000000003
sg51
F0.0
sg52
F0.0
sg53
F0.0
sg54
F0.0
sg55
F0.0
sg56
F0.0
sg57
F0.0
sg58
F0.0
sg59
F0.0
sg60
F0.0
sg61
F0.0
sg62
F0.0
sg63
F0.0
sg64
F0.0
sg65
F0.0
sg66
F0.0
sg67
F0.0050000000000000044
sg68
F-0.0119999999999999
sg69
F-0.015000000000000013
sg70
F0.0
sg71
F0.007000000000000006
sg72
F0.0
sg73
F0.0
sg74
F0.0
sg75
F0.0
sg76
F0.0
sg77
F0.0
sg78
F0.0
sg79
F0.0
sg80
F0.0
sg81
F0.0
sg82
F0.0
sg83
F0.0
sg84
F0.0
sg85
F0.0
sg86
F0.0
sg87
F0.0
sg88
F0.0
sg89
F0.126
sg90
F0.0
sg91
F0.020999999999999908
sg92
F0.031000000000000028
sg93
F-0.013999999999999901
sg94
F0.026000000000000023
sg95
F-0.02299999999999991
sg96
F0.0
sg97
F0.0
sg98
F0.0
sg99
F0.0
ss(S'VA09'
p244
S'VD10'
p245
tp246
(dp247
g5
F0.0030000000000000027
sg6
F0.04099999999999998
sg7
F0.08799999999999997
sg8
F-0.0119999999999999
sg9
F0.0
sg10
F0.0
sg11
F-0.007000000000000006
sg12
F0.0
sg13
F0.0
sg14
F0.0
sg15
F0.0
sg16
F0.0
sg17
F0.0
sg18
F0.0
sg19
F0.01200000000000001
sg20
F0.007000000000000006
sg21
F0.0
sg22
F0.0
sg23
F-0.013000000000000012
sg24
F0.08799999999999997
sg25
F0.03700000000000003
sg26
F0.05600000000000005
sg27
F0.016999999999999904
sg28
F0.0
sg29
F0.0
sg30
F-0.01200000000000001
sg31
F0.0
sg32
F0.0
sg33
F0.0
sg34
F0.09999999999999998
sg35
F0.0
sg36
F0.06399999999999995
sg37
F0.14800000000000002
sg38
F-0.007000000000000006
sg39
F-0.0020000000000000018
sg40
F-0.017999999999999905
sg41
F0.0
sg42
F0.0
sg43
F0.0
sg44
F0.09899999999999998
sg45
F0.0
sg46
F0.0
sg47
F0.0
sg48
F0.0
sg49
F0.07199999999999995
sg50
F0.15100000000000002
sg51
F0.0
sg52
F0.0
sg53
F0.0
sg54
F0.0
sg55
F0.0
sg56
F0.0
sg57
F0.0
sg58
F0.0
sg59
F0.0
sg60
F0.0
sg61
F0.0
sg62
F0.0
sg63
F0.0
sg64
F0.0
sg65
F0.0
sg66
F0.0
sg67
F0.008000000000000007
sg68
F-0.008000000000000007
sg69
F-0.010000000000000009
sg70
F0.0
sg71
F0.015000000000000013
sg72
F0.0
sg73
F0.0
sg74
F0.0
sg75
F0.0
sg76
F0.0
sg77
F0.0
sg78
F0.0
sg79
F0.0
sg80
F0.0
sg81
F0.0
sg82
F0.0
sg83
F0.0
sg84
F0.0
sg85
F0.0
sg86
F0.0
sg87
F0.0
sg88
F0.0
sg89
F0.08499999999999996
sg90
F0.0
sg91
F-0.009000000000000008
sg92
F0.017000000000000015
sg93
F-0.019999999999999907
sg94
F0.03300000000000003
sg95
F-0.02299999999999991
sg96
F0.0
sg97
F0.0
sg98
F0.0
sg99
F0.0
ss(S'VA09'
p248
S'VA10'
p249
tp250
(dp251
g5
F-0.010000000000000009
sg6
F0.045999999999999985
sg7
F0.04799999999999993
sg8
F-0.014999999999999902
sg9
F0.0
sg10
F0.0
sg11
F-0.02100000000000002
sg12
F0.0
sg13
F0.0
sg14
F0.0
sg15
F0.0
sg16
F0.0
sg17
F0.0
sg18
F0.0
sg19
F-0.027000000000000024
sg20
F0.0
sg21
F0.0
sg22
F0.0
sg23
F0.03199999999999992
sg24
F0.04999999999999993
sg25
F0.02400000000000002
sg26
F0.026000000000000023
sg27
F0.0119999999999999
sg28
F0.0
sg29
F0.0
sg30
F0.007999999999999896
sg31
F0.0
sg32
F0.0
sg33
F0.0
sg34
F0.09799999999999998
sg35
F0.0
sg36
F0.05700000000000005
sg37
F0.272
sg38
F0.0020000000000000018
sg39
F0.009999999999999898
sg40
F0.0030000000000000027
sg41
F0.0
sg42
F0.0
sg43
F0.0
sg44
F0.07199999999999995
sg45
F0.0
sg46
F0.0
sg47
F0.0
sg48
F0.0
sg49
F0.039000000000000035
sg50
F0.262
sg51
F0.0
sg52
F0.0
sg53
F0.0
sg54
F0.0
sg55
F0.0
sg56
F0.0
sg57
F0.0
sg58
F0.0
sg59
F0.0
sg60
F0.0
sg61
F0.0
sg62
F0.0
sg63
F0.0
sg64
F0.0
sg65
F0.0
sg66
F0.0
sg67
F0.007000000000000006
sg68
F-0.013999999999999901
sg69
F0.006999999999999895
sg70
F0.0
sg71
F0.010000000000000009
sg72
F0.0
sg73
F0.0
sg74
F0.0
sg75
F0.0
sg76
F0.0
sg77
F0.0
sg78
F0.0
sg79
F0.0
sg80
F0.0
sg81
F0.0
sg82
F0.0
sg83
F0.0
sg84
F0.0
sg85
F0.0
sg86
F0.0
sg87
F0.0
sg88
F0.0
sg89
F0.027000000000000024
sg90
F0.0
sg91
F-0.031000000000000028
sg92
F0.01200000000000001
sg93
F-0.014999999999999902
sg94
F0.026000000000000023
sg95
F-0.016999999999999904
sg96
F0.0
sg97
F0.0
sg98
F0.0
sg99
F0.0
ss(S'VA10'
p252
S'VB09'
p253
tp254
(dp255
g5
F-0.014000000000000012
sg6
F0.030000000000000027
sg7
F0.09399999999999997
sg8
F0.0010000000000000009
sg9
F0.0
sg10
F0.0
sg11
F-0.0020000000000000018
sg12
F0.0
sg13
F0.0
sg14
F0.0
sg15
F0.0
sg16
F0.0
sg17
F0.0
sg18
F0.0
sg19
F-0.03699999999999992
sg20
F0.025999999999999912
sg21
F0.0
sg22
F0.0
sg23
F0.005999999999999894
sg24
F0.05799999999999994
sg25
F0.031000000000000028
sg26
F0.061000000000000054
sg27
F-0.015000000000000013
sg28
F0.0
sg29
F0.0
sg30
F0.0039999999999998925
sg31
F0.0
sg32
F0.0
sg33
F0.0
sg34
F0.16300000000000003
sg35
F0.0
sg36
F0.08499999999999996
sg37
F0.08799999999999997
sg38
F-0.02300000000000002
sg39
F0.0
sg40
F-0.009999999999999898
sg41
F0.0
sg42
F0.0
sg43
F0.0
sg44
F0.14200000000000002
sg45
F0.0
sg46
F0.0
sg47
F0.0
sg48
F0.0
sg49
F0.08099999999999996
sg50
F0.07499999999999996
sg51
F0.0
sg52
F0.0
sg53
F0.0
sg54
F0.0
sg55
F0.0
sg56
F0.0
sg57
F0.0
sg58
F0.0
sg59
F0.0
sg60
F0.0
sg61
F0.0
sg62
F0.0
sg63
F0.0
sg64
F0.0
sg65
F0.0
sg66
F0.0
sg67
F-0.0020000000000000018
sg68
F-0.0020000000000000018
sg69
F-0.008000000000000007
sg70
F0.0
sg71
F-0.0050000000000000044
sg72
F0.0
sg73
F0.0
sg74
F0.0
sg75
F0.0
sg76
F0.0
sg77
F0.0
sg78
F0.0
sg79
F0.0
sg80
F0.0
sg81
F0.0
sg82
F0.0
sg83
F0.0
sg84
F0.0
sg85
F0.0
sg86
F0.0
sg87
F0.0
sg88
F0.0
sg89
F0.07599999999999996
sg90
F0.0
sg91
F0.014999999999999902
sg92
F0.040000000000000036
sg93
F-0.014999999999999902
sg94
F0.051000000000000045
sg95
F0.006000000000000005
sg96
F0.0
sg97
F0.0
sg98
F0.0
sg99
F0.0
ss(S'VB08'
p256
S'VD11'
p257
tp258
(dp259
g5
F-0.019000000000000017
sg6
F0.05099999999999999
sg7
F0.134
sg8
F-0.0030000000000000027
sg9
F0.0
sg10
F0.0
sg11
F-0.014000000000000012
sg12
F0.0
sg13
F0.0
sg14
F0.0
sg15
F0.0
sg16
F0.0
sg17
F0.0
sg18
F0.0
sg19
F0.0
sg20
F0.013999999999999901
sg21
F0.0
sg22
F0.0
sg23
F0.02299999999999991
sg24
F0.1509999999999999
sg25
F0.025000000000000022
sg26
F0.05400000000000005
sg27
F0.018999999999999906
sg28
F0.0
sg29
F0.0
sg30
F-0.0030000000000000027
sg31
F0.0
sg32
F0.0
sg33
F0.0
sg34
F0.03500000000000003
sg35
F0.0
sg36
F0.20299999999999996
sg37
F0.019000000000000017
sg38
F0.0050000000000000044
sg39
F0.004999999999999893
sg40
F-0.013999999999999901
sg41
F0.0
sg42
F0.0
sg43
F0.0
sg44
F0.03200000000000003
sg45
F0.0
sg46
F0.0
sg47
F0.0
sg48
F0.0
sg49
F0.17000000000000004
sg50
F0.01100000000000001
sg51
F0.0
sg52
F0.0
sg53
F0.0
sg54
F0.0
sg55
F0.0
sg56
F0.0
sg57
F0.0
sg58
F0.0
sg59
F0.0
sg60
F0.0
sg61
F0.0
sg62
F0.0
sg63
F0.0
sg64
F0.0
sg65
F0.0
sg66
F0.0
sg67
F0.01100000000000001
sg68
F0.0040000000000000036
sg69
F-0.010000000000000009
sg70
F0.0
sg71
F-0.014000000000000012
sg72
F0.0
sg73
F0.0
sg74
F0.0
sg75
F0.0
sg76
F0.0
sg77
F0.0
sg78
F0.0
sg79
F0.0
sg80
F0.0
sg81
F0.0
sg82
F0.0
sg83
F0.0
sg84
F0.0
sg85
F0.0
sg86
F0.0
sg87
F0.0
sg88
F0.0
sg89
F0.07999999999999996
sg90
F0.0
sg91
F-0.009000000000000008
sg92
F0.052999999999999936
sg93
F-0.017999999999999905
sg94
F0.031000000000000028
sg95
F-0.025999999999999912
sg96
F0.0
sg97
F0.0
sg98
F0.0
sg99
F0.0
ss(S'PDA'
p260
S'RID'
p261
tp262
(dp263
g5
F-0.007000000000000006
sg6
F0.09800000000000003
sg7
F0.0020000000000000018
sg8
F0.05300000000000005
sg9
F0.0
sg10
F0.0
sg11
F0.055999999999999994
sg12
F0.0
sg13
F0.0
sg14
F0.0
sg15
F0.0
sg16
F0.0
sg17
F0.0
sg18
F0.0
sg19
F0.04300000000000004
sg20
F0.0030000000000000027
sg21
F0.509
sg22
F0.0
sg23
F-0.0010000000000000009
sg24
F-0.020000000000000018
sg25
F0.03500000000000003
sg26
F0.0
sg27
F0.016999999999999904
sg28
F0.0
sg29
F0.0
sg30
F0.020999999999999908
sg31
F0.0
sg32
F0.0
sg33
F0.0
sg34
F0.0
sg35
F0.0
sg36
F0.0
sg37
F0.0
sg38
F-0.01100000000000001
sg39
F0.0029999999999998916
sg40
F0.07400000000000007
sg41
F0.0
sg42
F0.0
sg43
F0.0
sg44
F0.0
sg45
F0.0
sg46
F0.0
sg47
F0.0
sg48
F0.0
sg49
F0.0
sg50
F0.0
sg51
F0.0
sg52
F0.0
sg53
F0.0
sg54
F0.0
sg55
F0.0
sg56
F0.0
sg57
F0.0
sg58
F0.0
sg59
F0.0
sg60
F0.0
sg61
F0.0
sg62
F0.0
sg63
F0.0
sg64
F0.0
sg65
F0.0
sg66
F0.0
sg67
F0.029000000000000026
sg68
F0.0010000000000000009
sg69
F-0.006000000000000005
sg70
F0.0
sg71
F0.0
sg72
F0.0
sg73
F0.0
sg74
F0.0
sg75
F0.0
sg76
F0.0
sg77
F0.0
sg78
F0.0
sg79
F0.0
sg80
F0.0
sg81
F0.0
sg82
F0.0
sg83
F0.0
sg84
F0.0
sg85
F0.0
sg86
F0.0
sg87
F0.0
sg88
F0.0
sg89
F0.0
sg90
F0.0
sg91
F-0.06300000000000006
sg92
F0.030000000000000027
sg93
F0.006000000000000005
sg94
F0.06300000000000006
sg95
F0.06500000000000006
sg96
F0.0
sg97
F0.0
sg98
F0.0
sg99
F0.0
ss(S'VD09'
p264
S'VD10'
p265
tp266
(dp267
g5
F-0.010000000000000009
sg6
F0.019000000000000017
sg7
F0.09699999999999998
sg8
F-0.007000000000000006
sg9
F0.0
sg10
F0.0
sg11
F-0.032999999999999974
sg12
F0.0
sg13
F0.0
sg14
F0.0
sg15
F0.0
sg16
F0.0
sg17
F0.0
sg18
F0.0
sg19
F-0.015000000000000013
sg20
F0.009000000000000008
sg21
F0.0
sg22
F0.0
sg23
F0.008999999999999897
sg24
F0.07199999999999995
sg25
F0.050000000000000044
sg26
F0.06000000000000005
sg27
F-0.0020000000000000018
sg28
F0.0
sg29
F0.0
sg30
F-0.0030000000000000027
sg31
F0.0
sg32
F0.0
sg33
F0.0
sg34
F0.14400000000000002
sg35
F0.0
sg36
F0.08699999999999997
sg37
F0.11299999999999999
sg38
F0.0
sg39
F0.008999999999999897
sg40
F-0.013999999999999901
sg41
F0.0
sg42
F0.0
sg43
F0.0
sg44
F0.12
sg45
F0.0
sg46
F0.0
sg47
F0.0
sg48
F0.0
sg49
F0.07499999999999996
sg50
F0.09199999999999997
sg51
F0.0
sg52
F0.0
sg53
F0.0
sg54
F0.0
sg55
F0.0
sg56
F0.0
sg57
F0.0
sg58
F0.0
sg59
F0.0
sg60
F0.0
sg61
F0.0
sg62
F0.0
sg63
F0.0
sg64
F0.0
sg65
F0.0
sg66
F0.0
sg67
F0.02100000000000002
sg68
F0.0020000000000000018
sg69
F-0.016000000000000014
sg70
F0.0
sg71
F0.006000000000000005
sg72
F0.0
sg73
F0.0
sg74
F0.0
sg75
F0.0
sg76
F0.0
sg77
F0.0
sg78
F0.0
sg79
F0.0
sg80
F0.0
sg81
F0.0
sg82
F0.0
sg83
F0.0
sg84
F0.0
sg85
F0.0
sg86
F0.0
sg87
F0.0
sg88
F0.0
sg89
F0.06599999999999995
sg90
F0.0
sg91
F0.014999999999999902
sg92
F0.0020000000000000018
sg93
F-0.017999999999999905
sg94
F0.028000000000000025
sg95
F0.02200000000000002
sg96
F0.0
sg97
F0.0
sg98
F0.0
sg99
F0.0
ss(S'AVBL'
p268
S'VD10'
p269
tp270
(dp271
g5
F0.06299999999999994
sg6
F0.05199999999999999
sg7
F0.040999999999999925
sg8
F-0.0030000000000000027
sg9
F0.0
sg10
F0.0
sg11
F-0.0040000000000000036
sg12
F0.0
sg13
F0.0
sg14
F0.0
sg15
F0.0
sg16
F0.0
sg17
F0.0
sg18
F0.0
sg19
F0.0020000000000000018
sg20
F0.06099999999999994
sg21
F0.0
sg22
F0.0
sg23
F0.006999999999999895
sg24
F0.02199999999999991
sg25
F0.0020000000000000018
sg26
F0.025000000000000022
sg27
F-0.009000000000000008
sg28
F0.0
sg29
F0.0
sg30
F0.04899999999999993
sg31
F0.0
sg32
F0.0
sg33
F0.0
sg34
F0.04500000000000004
sg35
F0.0
sg36
F0.027000000000000024
sg37
F0.03200000000000003
sg38
F0.030000000000000027
sg39
F0.10299999999999998
sg40
F-0.004999999999999893
sg41
F0.0
sg42
F0.0
sg43
F0.0
sg44
F0.05300000000000005
sg45
F0.0
sg46
F0.0
sg47
F0.0
sg48
F0.0
sg49
F0.03200000000000003
sg50
F0.026000000000000023
sg51
F0.0
sg52
F0.0
sg53
F0.0
sg54
F0.0
sg55
F0.0
sg56
F0.0
sg57
F0.0
sg58
F0.0
sg59
F0.0
sg60
F0.0
sg61
F0.0
sg62
F0.0
sg63
F0.0
sg64
F0.0
sg65
F0.0
sg66
F0.0
sg67
F0.050000000000000044
sg68
F0.1100000000000001
sg69
F0.051999999999999935
sg70
F0.0
sg71
F0.05399999999999994
sg72
F0.0
sg73
F0.0
sg74
F0.0
sg75
F0.0
sg76
F0.0
sg77
F0.0
sg78
F0.0
sg79
F0.0
sg80
F0.0
sg81
F0.0
sg82
F0.0
sg83
F0.0
sg84
F0.0
sg85
F0.0
sg86
F0.0
sg87
F0.0
sg88
F0.0
sg89
F0.03400000000000003
sg90
F0.0
sg91
F-0.0020000000000000018
sg92
F0.04799999999999993
sg93
F0.020000000000000018
sg94
F0.0040000000000000036
sg95
F-0.020999999999999908
sg96
F0.0
sg97
F0.0
sg98
F0.0
sg99
F0.0
ss(S'AVBL'
p272
S'VB10'
p273
tp274
(dp275
g5
F0.052999999999999936
sg6
F0.05099999999999999
sg7
F0.06399999999999995
sg8
F-0.007000000000000006
sg9
F0.0
sg10
F0.0
sg11
F-0.03899999999999998
sg12
F0.0
sg13
F0.0
sg14
F0.0
sg15
F0.0
sg16
F0.0
sg17
F0.0
sg18
F0.0
sg19
F-0.02300000000000002
sg20
F0.03199999999999992
sg21
F0.0
sg22
F0.0
sg23
F-0.008000000000000007
sg24
F0.04599999999999993
sg25
F0.051000000000000045
sg26
F0.02200000000000002
sg27
F0.015999999999999903
sg28
F0.0
sg29
F0.0
sg30
F0.05899999999999994
sg31
F0.0
sg32
F0.0
sg33
F0.0
sg34
F0.02100000000000002
sg35
F0.0
sg36
F0.05800000000000005
sg37
F0.02100000000000002
sg38
F0.02100000000000002
sg39
F0.123
sg40
F0.04600000000000004
sg41
F0.0
sg42
F0.0
sg43
F0.0
sg44
F0.010000000000000009
sg45
F0.0
sg46
F0.0
sg47
F0.0
sg48
F0.0
sg49
F0.05700000000000005
sg50
F0.015000000000000013
sg51
F0.0
sg52
F0.0
sg53
F0.0
sg54
F0.0
sg55
F0.0
sg56
F0.0
sg57
F0.0
sg58
F0.0
sg59
F0.0
sg60
F0.0
sg61
F0.0
sg62
F0.0
sg63
F0.0
sg64
F0.0
sg65
F0.0
sg66
F0.0
sg67
F0.04700000000000004
sg68
F0.11599999999999999
sg69
F0.03199999999999992
sg70
F0.0
sg71
F0.061999999999999944
sg72
F0.0
sg73
F0.0
sg74
F0.0
sg75
F0.0
sg76
F0.0
sg77
F0.0
sg78
F0.0
sg79
F0.0
sg80
F0.0
sg81
F0.0
sg82
F0.0
sg83
F0.0
sg84
F0.0
sg85
F0.0
sg86
F0.0
sg87
F0.0
sg88
F0.0
sg89
F0.020000000000000018
sg90
F0.0
sg91
F-0.008000000000000007
sg92
F0.018000000000000016
sg93
F0.017000000000000015
sg94
F0.03700000000000003
sg95
F-0.029999999999999916
sg96
F0.0
sg97
F0.0
sg98
F0.0
sg99
F0.0
ss(S'VB08'
p276
S'VD09'
p277
tp278
(dp279
g5
F-0.009000000000000008
sg6
F0.057999999999999996
sg7
F0.08699999999999997
sg8
F-0.019999999999999907
sg9
F0.0
sg10
F0.0
sg11
F0.01200000000000001
sg12
F0.0
sg13
F0.0
sg14
F0.0
sg15
F0.0
sg16
F0.0
sg17
F0.0
sg18
F0.0
sg19
F0.009000000000000008
sg20
F0.006000000000000005
sg21
F0.0
sg22
F0.0
sg23
F0.03699999999999992
sg24
F0.06699999999999995
sg25
F0.02100000000000002
sg26
F0.03400000000000003
sg27
F0.0039999999999998925
sg28
F0.0
sg29
F0.0
sg30
F0.0019999999999998908
sg31
F0.0
sg32
F0.0
sg33
F0.0
sg34
F0.14100000000000001
sg35
F0.0
sg36
F0.05900000000000005
sg37
F0.15100000000000002
sg38
F-0.008000000000000007
sg39
F0.0029999999999998916
sg40
F-0.008999999999999897
sg41
F0.0
sg42
F0.0
sg43
F0.0
sg44
F0.135
sg45
F0.0
sg46
F0.0
sg47
F0.0
sg48
F0.0
sg49
F0.05500000000000005
sg50
F0.15300000000000002
sg51
F0.0
sg52
F0.0
sg53
F0.0
sg54
F0.0
sg55
F0.0
sg56
F0.0
sg57
F0.0
sg58
F0.0
sg59
F0.0
sg60
F0.0
sg61
F0.0
sg62
F0.0
sg63
F0.0
sg64
F0.0
sg65
F0.0
sg66
F0.0
sg67
F0.030000000000000027
sg68
F-0.010000000000000009
sg69
F-0.017000000000000015
sg70
F0.0
sg71
F0.0030000000000000027
sg72
F0.0
sg73
F0.0
sg74
F0.0
sg75
F0.0
sg76
F0.0
sg77
F0.0
sg78
F0.0
sg79
F0.0
sg80
F0.0
sg81
F0.0
sg82
F0.0
sg83
F0.0
sg84
F0.0
sg85
F0.0
sg86
F0.0
sg87
F0.0
sg88
F0.0
sg89
F0.06399999999999995
sg90
F0.0
sg91
F0.006999999999999895
sg92
F-0.015000000000000013
sg93
F-0.015999999999999903
sg94
F-0.008000000000000007
sg95
F-0.025999999999999912
sg96
F0.0
sg97
F0.0
sg98
F0.0
sg99
F0.0
ss(S'VA09'
p280
S'VD09'
p281
tp282
(dp283
g5
F-0.010000000000000009
sg6
F0.025000000000000022
sg7
F0.04699999999999993
sg8
F-0.02199999999999991
sg9
F0.0
sg10
F0.0
sg11
F0.01200000000000001
sg12
F0.0
sg13
F0.0
sg14
F0.0
sg15
F0.0
sg16
F0.0
sg17
F0.0
sg18
F0.0
sg19
F0.009000000000000008
sg20
F0.01100000000000001
sg21
F0.0
sg22
F0.0
sg23
F0.030999999999999917
sg24
F0.05899999999999994
sg25
F0.040000000000000036
sg26
F0.02100000000000002
sg27
F-0.008000000000000007
sg28
F0.0
sg29
F0.0
sg30
F0.005999999999999894
sg31
F0.0
sg32
F0.0
sg33
F0.0
sg34
F0.08999999999999997
sg35
F0.0
sg36
F0.05400000000000005
sg37
F0.28200000000000003
sg38
F-0.0030000000000000027
sg39
F0.004999999999999893
sg40
F-0.005999999999999894
sg41
F0.0
sg42
F0.0
sg43
F0.0
sg44
F0.06799999999999995
sg45
F0.0
sg46
F0.0
sg47
F0.0
sg48
F0.0
sg49
F0.04300000000000004
sg50
F0.255
sg51
F0.0
sg52
F0.0
sg53
F0.0
sg54
F0.0
sg55
F0.0
sg56
F0.0
sg57
F0.0
sg58
F0.0
sg59
F0.0
sg60
F0.0
sg61
F0.0
sg62
F0.0
sg63
F0.0
sg64
F0.0
sg65
F0.0
sg66
F0.0
sg67
F0.0040000000000000036
sg68
F-0.006000000000000005
sg69
F-0.013000000000000012
sg70
F0.0
sg71
F0.006000000000000005
sg72
F0.0
sg73
F0.0
sg74
F0.0
sg75
F0.0
sg76
F0.0
sg77
F0.0
sg78
F0.0
sg79
F0.0
sg80
F0.0
sg81
F0.0
sg82
F0.0
sg83
F0.0
sg84
F0.0
sg85
F0.0
sg86
F0.0
sg87
F0.0
sg88
F0.0
sg89
F0.03200000000000003
sg90
F0.0
sg91
F-0.02100000000000002
sg92
F0.007000000000000006
sg93
F-0.0050000000000000044
sg94
F0.02400000000000002
sg95
F-0.03699999999999992
sg96
F0.0
sg97
F0.0
sg98
F0.0
sg99
F0.0
ss(S'VB10'
p284
S'VD09'
p285
tp286
(dp287
g5
F-0.010000000000000009
sg6
F0.04799999999999999
sg7
F0.11499999999999999
sg8
F0.0050000000000000044
sg9
F0.0
sg10
F0.0
sg11
F0.0010000000000000009
sg12
F0.0
sg13
F0.0
sg14
F0.0
sg15
F0.0
sg16
F0.0
sg17
F0.0
sg18
F0.0
sg19
F-0.015000000000000013
sg20
F0.008000000000000007
sg21
F0.0
sg22
F0.0
sg23
F0.038999999999999924
sg24
F0.09499999999999997
sg25
F0.07400000000000007
sg26
F0.041000000000000036
sg27
F-0.0030000000000000027
sg28
F0.0
sg29
F0.0
sg30
F-0.014000000000000012
sg31
F0.0
sg32
F0.0
sg33
F0.0
sg34
F0.038000000000000034
sg35
F0.0
sg36
F0.18500000000000005
sg37
F0.05800000000000005
sg38
F-0.015000000000000013
sg39
F-0.0020000000000000018
sg40
F-0.0129999999999999
sg41
F0.0
sg42
F0.0
sg43
F0.0
sg44
F0.05300000000000005
sg45
F0.0
sg46
F0.0
sg47
F0.0
sg48
F0.0
sg49
F0.14900000000000002
sg50
F0.04500000000000004
sg51
F0.0
sg52
F0.0
sg53
F0.0
sg54
F0.0
sg55
F0.0
sg56
F0.0
sg57
F0.0
sg58
F0.0
sg59
F0.0
sg60
F0.0
sg61
F0.0
sg62
F0.0
sg63
F0.0
sg64
F0.0
sg65
F0.0
sg66
F0.0
sg67
F0.015000000000000013
sg68
F-0.0050000000000000044
sg69
F-0.0040000000000000036
sg70
F0.0
sg71
F-0.0040000000000000036
sg72
F0.0
sg73
F0.0
sg74
F0.0
sg75
F0.0
sg76
F0.0
sg77
F0.0
sg78
F0.0
sg79
F0.0
sg80
F0.0
sg81
F0.0
sg82
F0.0
sg83
F0.0
sg84
F0.0
sg85
F0.0
sg86
F0.0
sg87
F0.0
sg88
F0.0
sg89
F0.07299999999999995
sg90
F0.0
sg91
F-0.009000000000000008
sg92
F0.04699999999999993
sg93
F0.0020000000000000018
sg94
F0.013000000000000012
sg95
F-0.009999999999999898
sg96
F0.0
sg97
F0.0
sg98
F0.0
sg99
F0.0
ss(S'VA11'
p288
S'VB08'
p289
tp290
(dp291
g5
F-0.01100000000000001
sg6
F0.03200000000000003
sg7
F0.16699999999999993
sg8
F-0.018999999999999906
sg9
F0.0
sg10
F0.0
sg11
F0.013000000000000012
sg12
F0.0
sg13
F0.0
sg14
F0.0
sg15
F0.0
sg16
F0.0
sg17
F0.0
sg18
F0.0
sg19
F-0.020000000000000018
sg20
F0.008000000000000007
sg21
F0.0
sg22
F0.0
sg23
F0.004999999999999893
sg24
F0.1359999999999999
sg25
F0.041000000000000036
sg26
F0.05700000000000005
sg27
F-0.01200000000000001
sg28
F0.0
sg29
F0.0
sg30
F0.017999999999999905
sg31
F0.0
sg32
F0.0
sg33
F0.0
sg34
F0.02400000000000002
sg35
F0.0
sg36
F0.19799999999999995
sg37
F0.027000000000000024
sg38
F-0.026000000000000023
sg39
F-0.0010000000000000009
sg40
F-0.0129999999999999
sg41
F0.0
sg42
F0.0
sg43
F0.0
sg44
F0.03400000000000003
sg45
F0.0
sg46
F0.0
sg47
F0.0
sg48
F0.0
sg49
F0.14600000000000002
sg50
F0.029000000000000026
sg51
F0.0
sg52
F0.0
sg53
F0.0
sg54
F0.0
sg55
F0.0
sg56
F0.0
sg57
F0.0
sg58
F0.0
sg59
F0.0
sg60
F0.0
sg61
F0.0
sg62
F0.0
sg63
F0.0
sg64
F0.0
sg65
F0.0
sg66
F0.0
sg67
F0.017000000000000015
sg68
F-0.006000000000000005
sg69
F-0.010000000000000009
sg70
F0.0
sg71
F0.0050000000000000044
sg72
F0.0
sg73
F0.0
sg74
F0.0
sg75
F0.0
sg76
F0.0
sg77
F0.0
sg78
F0.0
sg79
F0.0
sg80
F0.0
sg81
F0.0
sg82
F0.0
sg83
F0.0
sg84
F0.0
sg85
F0.0
sg86
F0.0
sg87
F0.0
sg88
F0.0
sg89
F0.06499999999999995
sg90
F0.0
sg91
F0.0129999999999999
sg92
F0.06999999999999995
sg93
F-0.018999999999999906
sg94
F0.041000000000000036
sg95
F-0.008999999999999897
sg96
F0.0
sg97
F0.0
sg98
F0.0
sg99
F0.0
ss(S'AVBL'
p292
S'VB08'
p293
tp294
(dp295
g5
F0.07699999999999996
sg6
F0.03899999999999998
sg7
F0.05599999999999994
sg8
F-0.018999999999999906
sg9
F0.0
sg10
F0.0
sg11
F-0.019000000000000017
sg12
F0.0
sg13
F0.0
sg14
F0.0
sg15
F0.0
sg16
F0.0
sg17
F0.0
sg18
F0.0
sg19
F0.0020000000000000018
sg20
F0.04499999999999993
sg21
F0.0
sg22
F0.0
sg23
F0.006999999999999895
sg24
F0.004999999999999893
sg25
F0.006000000000000005
sg26
F0.018000000000000016
sg27
F-0.009000000000000008
sg28
F0.0
sg29
F0.0
sg30
F0.040999999999999925
sg31
F0.0
sg32
F0.0
sg33
F0.0
sg34
F0.04200000000000004
sg35
F0.0
sg36
F0.028000000000000025
sg37
F0.04800000000000004
sg38
F0.029000000000000026
sg39
F0.1299999999999999
sg40
F-0.007999999999999896
sg41
F0.0
sg42
F0.0
sg43
F0.0
sg44
F0.04500000000000004
sg45
F0.0
sg46
F0.0
sg47
F0.0
sg48
F0.0
sg49
F0.027000000000000024
sg50
F0.04500000000000004
sg51
F0.0
sg52
F0.0
sg53
F0.0
sg54
F0.0
sg55
F0.0
sg56
F0.0
sg57
F0.0
sg58
F0.0
sg59
F0.0
sg60
F0.0
sg61
F0.0
sg62
F0.0
sg63
F0.0
sg64
F0.0
sg65
F0.0
sg66
F0.0
sg67
F0.05600000000000005
sg68
F0.132
sg69
F0.04999999999999993
sg70
F0.0
sg71
F0.06699999999999995
sg72
F0.0
sg73
F0.0
sg74
F0.0
sg75
F0.0
sg76
F0.0
sg77
F0.0
sg78
F0.0
sg79
F0.0
sg80
F0.0
sg81
F0.0
sg82
F0.0
sg83
F0.0
sg84
F0.0
sg85
F0.0
sg86
F0.0
sg87
F0.0
sg88
F0.0
sg89
F0.017000000000000015
sg90
F0.0
sg91
F0.0009999999999998899
sg92
F0.0030000000000000027
sg93
F0.009000000000000008
sg94
F0.025000000000000022
sg95
F0.0050000000000000044
sg96
F0.0
sg97
F0.0
sg98
F0.0
sg99
F0.0
ss(S'VB09'
p296
S'VD11'
p297
tp298
(dp299
g5
F-0.01100000000000001
sg6
F0.064
sg7
F0.131
sg8
F-0.02199999999999991
sg9
F0.0
sg10
F0.0
sg11
F-0.019000000000000017
sg12
F0.0
sg13
F0.0
sg14
F0.0
sg15
F0.0
sg16
F0.0
sg17
F0.0
sg18
F0.0
sg19
F-0.01200000000000001
sg20
F0.014999999999999902
sg21
F0.0
sg22
F0.0
sg23
F0.025999999999999912
sg24
F0.1419999999999999
sg25
F0.07000000000000006
sg26
F0.04800000000000004
sg27
F-0.010000000000000009
sg28
F0.0
sg29
F0.0
sg30
F-0.008000000000000007
sg31
F0.0
sg32
F0.0
sg33
F0.0
sg34
F0.026000000000000023
sg35
F0.0
sg36
F0.21299999999999997
sg37
F0.014000000000000012
sg38
F-0.019000000000000017
sg39
F-0.0040000000000000036
sg40
F0.008000000000000007
sg41
F0.0
sg42
F0.0
sg43
F0.0
sg44
F0.020000000000000018
sg45
F0.0
sg46
F0.0
sg47
F0.0
sg48
F0.0
sg49
F0.18500000000000005
sg50
F0.01200000000000001
sg51
F0.0
sg52
F0.0
sg53
F0.0
sg54
F0.0
sg55
F0.0
sg56
F0.0
sg57
F0.0
sg58
F0.0
sg59
F0.0
sg60
F0.0
sg61
F0.0
sg62
F0.0
sg63
F0.0
sg64
F0.0
sg65
F0.0
sg66
F0.0
sg67
F0.014000000000000012
sg68
F-0.007000000000000006
sg69
F-0.01200000000000001
sg70
F0.0
sg71
F-0.0040000000000000036
sg72
F0.0
sg73
F0.0
sg74
F0.0
sg75
F0.0
sg76
F0.0
sg77
F0.0
sg78
F0.0
sg79
F0.0
sg80
F0.0
sg81
F0.0
sg82
F0.0
sg83
F0.0
sg84
F0.0
sg85
F0.0
sg86
F0.0
sg87
F0.0
sg88
F0.0
sg89
F0.07699999999999996
sg90
F0.0
sg91
F0.010999999999999899
sg92
F0.03500000000000003
sg93
F-0.0010000000000000009
sg94
F0.031000000000000028
sg95
F-0.0129999999999999
sg96
F0.0
sg97
F0.0
sg98
F0.0
sg99
F0.0
ss(S'AVBL'
p300
S'VB09'
p301
tp302
(dp303
g5
F0.07399999999999995
sg6
F0.03799999999999998
sg7
F0.02199999999999991
sg8
F0.008000000000000007
sg9
F0.0
sg10
F0.0
sg11
F-0.02400000000000002
sg12
F0.0
sg13
F0.0
sg14
F0.0
sg15
F0.0
sg16
F0.0
sg17
F0.0
sg18
F0.0
sg19
F-0.013000000000000012
sg20
F0.041999999999999926
sg21
F0.0
sg22
F0.0
sg23
F-0.0040000000000000036
sg24
F0.04699999999999993
sg25
F0.008000000000000007
sg26
F0.014000000000000012
sg27
F0.016999999999999904
sg28
F0.0
sg29
F0.0
sg30
F0.04599999999999993
sg31
F0.0
sg32
F0.0
sg33
F0.0
sg34
F0.05800000000000005
sg35
F0.0
sg36
F0.025000000000000022
sg37
F0.03200000000000003
sg38
F0.031000000000000028
sg39
F0.1329999999999999
sg40
F-0.018999999999999906
sg41
F0.0
sg42
F0.0
sg43
F0.0
sg44
F0.051000000000000045
sg45
F0.0
sg46
F0.0
sg47
F0.0
sg48
F0.0
sg49
F0.02300000000000002
sg50
F0.02300000000000002
sg51
F0.0
sg52
F0.0
sg53
F0.0
sg54
F0.0
sg55
F0.0
sg56
F0.0
sg57
F0.0
sg58
F0.0
sg59
F0.0
sg60
F0.0
sg61
F0.0
sg62
F0.0
sg63
F0.0
sg64
F0.0
sg65
F0.0
sg66
F0.0
sg67
F0.04200000000000004
sg68
F0.1130000000000001
sg69
F0.03699999999999992
sg70
F0.0
sg71
F0.06599999999999995
sg72
F0.0
sg73
F0.0
sg74
F0.0
sg75
F0.0
sg76
F0.0
sg77
F0.0
sg78
F0.0
sg79
F0.0
sg80
F0.0
sg81
F0.0
sg82
F0.0
sg83
F0.0
sg84
F0.0
sg85
F0.0
sg86
F0.0
sg87
F0.0
sg88
F0.0
sg89
F0.020000000000000018
sg90
F0.0
sg91
F-0.010000000000000009
sg92
F0.020000000000000018
sg93
F0.018000000000000016
sg94
F0.05400000000000005
sg95
F0.008000000000000007
sg96
F0.0
sg97
F0.0
sg98
F0.0
sg99
F0.0
ss(S'VB08'
p304
S'VD10'
p305
tp306
(dp307
g5
F-0.009000000000000008
sg6
F0.063
sg7
F0.11099999999999999
sg8
F0.008000000000000007
sg9
F0.0
sg10
F0.0
sg11
F-0.03799999999999998
sg12
F0.0
sg13
F0.0
sg14
F0.0
sg15
F0.0
sg16
F0.0
sg17
F0.0
sg18
F0.0
sg19
F0.007000000000000006
sg20
F0.01100000000000001
sg21
F0.0
sg22
F0.0
sg23
F0.039999999999999925
sg24
F0.07599999999999996
sg25
F0.026000000000000023
sg26
F0.06899999999999995
sg27
F0.0030000000000000027
sg28
F0.0
sg29
F0.0
sg30
F-0.0030000000000000027
sg31
F0.0
sg32
F0.0
sg33
F0.0
sg34
F0.126
sg35
F0.0
sg36
F0.122
sg37
F0.06000000000000005
sg38
F-0.0040000000000000036
sg39
F0.009999999999999898
sg40
F0.006000000000000005
sg41
F0.0
sg42
F0.0
sg43
F0.0
sg44
F0.10999999999999999
sg45
F0.0
sg46
F0.0
sg47
F0.0
sg48
F0.0
sg49
F0.08499999999999996
sg50
F0.04300000000000004
sg51
F0.0
sg52
F0.0
sg53
F0.0
sg54
F0.0
sg55
F0.0
sg56
F0.0
sg57
F0.0
sg58
F0.0
sg59
F0.0
sg60
F0.0
sg61
F0.0
sg62
F0.0
sg63
F0.0
sg64
F0.0
sg65
F0.0
sg66
F0.0
sg67
F0.010000000000000009
sg68
F-0.019999999999999907
sg69
F-0.008000000000000007
sg70
F0.0
sg71
F0.007000000000000006
sg72
F0.0
sg73
F0.0
sg74
F0.0
sg75
F0.0
sg76
F0.0
sg77
F0.0
sg78
F0.0
sg79
F0.0
sg80
F0.0
sg81
F0.0
sg82
F0.0
sg83
F0.0
sg84
F0.0
sg85
F0.0
sg86
F0.0
sg87
F0.0
sg88
F0.0
sg89
F0.09899999999999998
sg90
F0.0
sg91
F-0.0050000000000000044
sg92
F0.03500000000000003
sg93
F-0.0119999999999999
sg94
F0.0040000000000000036
sg95
F-0.03199999999999992
sg96
F0.0
sg97
F0.0
sg98
F0.0
sg99
F0.0
ss(S'AS07'
p308
S'DA06'
p309
tp310
(dp311
g5
F0.14200000000000002
sg6
F0.05299999999999999
sg7
F0.02199999999999991
sg8
F-0.03699999999999992
sg9
F0.0
sg10
F0.0
sg11
F0.01100000000000001
sg12
F0.0
sg13
F0.0
sg14
F0.0
sg15
F0.0
sg16
F0.0
sg17
F0.0
sg18
F0.0
sg19
F-0.02400000000000002
sg20
F0.03699999999999992
sg21
F0.0
sg22
F0.0
sg23
F-0.01200000000000001
sg24
F0.0030000000000000027
sg25
F0.008000000000000007
sg26
F0.0
sg27
F-0.0020000000000000018
sg28
F0.0
sg29
F0.0
sg30
F0.03699999999999992
sg31
F0.0
sg32
F0.0
sg33
F0.0
sg34
F0.0
sg35
F0.0
sg36
F0.0
sg37
F0.0
sg38
F0.008000000000000007
sg39
F0.07399999999999995
sg40
F-0.009999999999999898
sg41
F0.0
sg42
F0.0
sg43
F0.0
sg44
F0.0
sg45
F0.0
sg46
F0.0
sg47
F0.0
sg48
F0.0
sg49
F0.0
sg50
F0.0
sg51
F0.0
sg52
F0.0
sg53
F0.0
sg54
F0.0
sg55
F0.0
sg56
F0.0
sg57
F0.0
sg58
F0.0
sg59
F0.0
sg60
F0.0
sg61
F0.0
sg62
F0.0
sg63
F0.0
sg64
F0.0
sg65
F0.0
sg66
F0.0
sg67
F0.03200000000000003
sg68
F0.09500000000000008
sg69
F0.018999999999999906
sg70
F0.17600000000000005
sg71
F0.15400000000000003
sg72
F0.0
sg73
F0.0
sg74
F0.0
sg75
F0.0
sg76
F0.0
sg77
F0.0
sg78
F0.0
sg79
F0.0
sg80
F0.0
sg81
F0.0
sg82
F0.0
sg83
F0.0
sg84
F0.0
sg85
F0.0
sg86
F0.0
sg87
F0.0
sg88
F0.17700000000000005
sg89
F0.0
sg90
F0.0
sg91
F-0.01100000000000001
sg92
F-0.008000000000000007
sg93
F0.02300000000000002
sg94
F0.027000000000000024
sg95
F0.006000000000000005
sg96
F0.0
sg97
F0.0
sg98
F0.0
sg99
F0.0
ss(S'VB10'
p312
S'VD10'
p313
tp314
(dp315
g5
F-0.015000000000000013
sg6
F0.03200000000000003
sg7
F0.16199999999999992
sg8
F-0.03799999999999992
sg9
F0.0
sg10
F0.0
sg11
F-0.018000000000000016
sg12
F0.0
sg13
F0.0
sg14
F0.0
sg15
F0.0
sg16
F0.0
sg17
F0.0
sg18
F0.0
sg19
F0.019000000000000017
sg20
F0.014999999999999902
sg21
F0.0
sg22
F0.0
sg23
F0.029999999999999916
sg24
F0.1319999999999999
sg25
F0.031000000000000028
sg26
F0.04300000000000004
sg27
F0.0
sg28
F0.0
sg29
F0.0
sg30
F-0.0040000000000000036
sg31
F0.0
sg32
F0.0
sg33
F0.0
sg34
F0.027000000000000024
sg35
F0.0
sg36
F0.18799999999999994
sg37
F0.015000000000000013
sg38
F-0.013000000000000012
sg39
F0.0019999999999998908
sg40
F-0.020999999999999908
sg41
F0.0
sg42
F0.0
sg43
F0.0
sg44
F0.029000000000000026
sg45
F0.0
sg46
F0.0
sg47
F0.0
sg48
F0.0
sg49
F0.18100000000000005
sg50
F0.013000000000000012
sg51
F0.0
sg52
F0.0
sg53
F0.0
sg54
F0.0
sg55
F0.0
sg56
F0.0
sg57
F0.0
sg58
F0.0
sg59
F0.0
sg60
F0.0
sg61
F0.0
sg62
F0.0
sg63
F0.0
sg64
F0.0
sg65
F0.0
sg66
F0.0
sg67
F0.01200000000000001
sg68
F0.0
sg69
F-0.007000000000000006
sg70
F0.0
sg71
F-0.0050000000000000044
sg72
F0.0
sg73
F0.0
sg74
F0.0
sg75
F0.0
sg76
F0.0
sg77
F0.0
sg78
F0.0
sg79
F0.0
sg80
F0.0
sg81
F0.0
sg82
F0.0
sg83
F0.0
sg84
F0.0
sg85
F0.0
sg86
F0.0
sg87
F0.0
sg88
F0.0
sg89
F0.08099999999999996
sg90
F0.0
sg91
F0.015999999999999903
sg92
F0.051999999999999935
sg93
F-0.010999999999999899
sg94
F0.061000000000000054
sg95
F-0.008999999999999897
sg96
F0.0
sg97
F0.0
sg98
F0.0
sg99
F0.0
ss(S'VD09'
p316
S'VD11'
p317
tp318
(dp319
g5
F-0.01200000000000001
sg6
F0.03899999999999998
sg7
F0.131
sg8
F0.006000000000000005
sg9
F0.0
sg10
F0.0
sg11
F-0.01200000000000001
sg12
F0.0
sg13
F0.0
sg14
F0.0
sg15
F0.0
sg16
F0.0
sg17
F0.0
sg18
F0.0
sg19
F-0.02400000000000002
sg20
F0.0040000000000000036
sg21
F0.0
sg22
F0.0
sg23
F0.04299999999999993
sg24
F0.125
sg25
F0.027000000000000024
sg26
F0.05300000000000005
sg27
F-0.0030000000000000027
sg28
F0.0
sg29
F0.0
sg30
F0.0019999999999998908
sg31
F0.0
sg32
F0.0
sg33
F0.0
sg34
F0.06899999999999995
sg35
F0.0
sg36
F0.18100000000000005
sg37
F0.04200000000000004
sg38
F0.010000000000000009
sg39
F0.0029999999999998916
sg40
F-0.0039999999999998925
sg41
F0.0
sg42
F0.0
sg43
F0.0
sg44
F0.050000000000000044
sg45
F0.0
sg46
F0.0
sg47
F0.0
sg48
F0.0
sg49
F0.137
sg50
F0.04700000000000004
sg51
F0.0
sg52
F0.0
sg53
F0.0
sg54
F0.0
sg55
F0.0
sg56
F0.0
sg57
F0.0
sg58
F0.0
sg59
F0.0
sg60
F0.0
sg61
F0.0
sg62
F0.0
sg63
F0.0
sg64
F0.0
sg65
F0.0
sg66
F0.0
sg67
F0.016000000000000014
sg68
F-0.017999999999999905
sg69
F-0.014000000000000012
sg70
F0.0
sg71
F-0.007000000000000006
sg72
F0.0
sg73
F0.0
sg74
F0.0
sg75
F0.0
sg76
F0.0
sg77
F0.0
sg78
F0.0
sg79
F0.0
sg80
F0.0
sg81
F0.0
sg82
F0.0
sg83
F0.0
sg84
F0.0
sg85
F0.0
sg86
F0.0
sg87
F0.0
sg88
F0.0
sg89
F0.05700000000000005
sg90
F0.0
sg91
F-0.0030000000000000027
sg92
F0.04399999999999993
sg93
F-0.0129999999999999
sg94
F0.013000000000000012
sg95
F0.01100000000000001
sg96
F0.0
sg97
F0.0
sg98
F0.0
sg99
F0.0
ss(S'AS07'
p320
S'DB04'
p321
tp322
(dp323
g5
F0.14100000000000001
sg6
F0.04799999999999999
sg7
F0.0040000000000000036
sg8
F-0.020999999999999908
sg9
F0.0
sg10
F0.0
sg11
F-0.014000000000000012
sg12
F0.0
sg13
F0.0
sg14
F0.0
sg15
F0.0
sg16
F0.0
sg17
F0.0
sg18
F0.0
sg19
F0.0050000000000000044
sg20
F0.03399999999999992
sg21
F0.0
sg22
F0.0
sg23
F0.02399999999999991
sg24
F-0.0040000000000000036
sg25
F0.030000000000000027
sg26
F0.0
sg27
F-0.013000000000000012
sg28
F0.0
sg29
F0.0
sg30
F0.041999999999999926
sg31
F0.0
sg32
F0.0
sg33
F0.0
sg34
F0.0
sg35
F0.0
sg36
F0.0
sg37
F0.0
sg38
F0.01200000000000001
sg39
F0.07899999999999996
sg40
F0.0020000000000000018
sg41
F0.0
sg42
F0.0
sg43
F0.0
sg44
F0.0
sg45
F0.0
sg46
F0.0
sg47
F0.0
sg48
F0.0
sg49
F0.0
sg50
F0.0
sg51
F0.0
sg52
F0.0
sg53
F0.0
sg54
F0.0
sg55
F0.0
sg56
F0.0
sg57
F0.0
sg58
F0.0
sg59
F0.0
sg60
F0.0
sg61
F0.0
sg62
F0.0
sg63
F0.0
sg64
F0.0
sg65
F0.0
sg66
F0.0
sg67
F0.02100000000000002
sg68
F0.06600000000000006
sg69
F0.02299999999999991
sg70
F0.17200000000000004
sg71
F0.14200000000000002
sg72
F0.0
sg73
F0.0
sg74
F0.0
sg75
F0.0
sg76
F0.0
sg77
F0.0
sg78
F0.0
sg79
F0.0
sg80
F0.0
sg81
F0.0
sg82
F0.0
sg83
F0.0
sg84
F0.0
sg85
F0.0
sg86
F0.0
sg87
F0.0
sg88
F0.18700000000000006
sg89
F0.0
sg90
F0.0
sg91
F-0.028000000000000025
sg92
F-0.013000000000000012
sg93
F0.049000000000000044
sg94
F0.019000000000000017
sg95
F-0.007000000000000006
sg96
F0.0
sg97
F0.0
sg98
F0.0
sg99
F0.0
ss.