(dp0
(S'VA09'
p1
S'DB04'
p2
S'AVBR'
p3
tp4
(dp5
S'MDR15'
p6
F0.119
sS'MDR24'
p7
F0.03500000000000003
sS'MVL21'
p8
F-0.007000000000000006
sS'MDL24'
p9
F-0.013999999999999901
sS'MVR04'
p10
F0.0
sS'MVR05'
p11
F0.0
sS'MDR23'
p12
F-0.01100000000000001
sS'MVR06'
p13
F0.0
sS'MVL02'
p14
F0.0
sS'MVR07'
p15
F0.0
sS'MVR01'
p16
F0.0
sS'MVR02'
p17
F0.0
sS'MDL10'
p18
F0.0
sS'MVR13'
p19
F0.0
sS'MDL23'
p20
F0.010000000000000009
sS'MDL20'
p21
F0.039999999999999925
sS'MDL21'
p22
F0.0
sS'MVL01'
p23
F0.0
sS'MVR24'
p24
F-0.007000000000000006
sS'MVR22'
p25
F0.017999999999999905
sS'MVR23'
p26
F0.041000000000000036
sS'MVR20'
p27
F0.0050000000000000044
sS'MVR21'
p28
F-0.0050000000000000044
sS'MVL11'
p29
F0.0
sS'MVL10'
p30
F0.0
sS'MDR17'
p31
F0.06699999999999995
sS'MVL12'
p32
F0.0
sS'MVL15'
p33
F0.0
sS'MVL14'
p34
F0.0
sS'MVL17'
p35
F0.009000000000000008
sS'MVL16'
p36
F0.0
sS'MVL19'
p37
F0.010000000000000009
sS'MVL18'
p38
F0.04500000000000004
sS'MDR19'
p39
F0.009000000000000008
sS'MDR18'
p40
F0.1359999999999999
sS'MDL22'
p41
F0.040000000000000036
sS'MVR12'
p42
F0.0
sS'MVR11'
p43
F0.0
sS'MVR10'
p44
F0.0
sS'MVR17'
p45
F0.008000000000000007
sS'MVR16'
p46
F0.0
sS'MVR15'
p47
F0.0
sS'MVR14'
p48
F0.0
sS'MVL13'
p49
F0.0
sS'MVR19'
p50
F0.0040000000000000036
sS'MVR18'
p51
F0.03700000000000003
sS'MDR06'
p52
F0.0
sS'MVL03'
p53
F0.0
sS'MDR04'
p54
F0.0
sS'MDR05'
p55
F0.0
sS'MDR02'
p56
F0.0
sS'MVL07'
p57
F0.0
sS'MVL04'
p58
F0.0
sS'MDR01'
p59
F0.0
sS'MVL06'
p60
F0.0
sS'MVL08'
p61
F0.0
sS'MVL09'
p62
F0.0
sS'MDR08'
p63
F0.0
sS'MDR03'
p64
F0.0
sS'MVL05'
p65
F0.0
sS'MVR08'
p66
F0.0
sS'MVR09'
p67
F0.0
sS'MDL19'
p68
F0.06500000000000006
sS'MDL18'
p69
F0.126
sS'MDL17'
p70
F0.051999999999999935
sS'MDL16'
p71
F0.015000000000000013
sS'MDL15'
p72
F0.11399999999999999
sS'MDL14'
p73
F0.0
sS'MDL13'
p74
F0.0
sS'MDL12'
p75
F0.0
sS'MDL11'
p76
F0.0
sS'MVR03'
p77
F0.0
sS'MDR09'
p78
F0.0
sS'MDL08'
p79
F0.0
sS'MDL09'
p80
F0.0
sS'MDR14'
p81
F0.0
sS'MDL01'
p82
F0.0
sS'MDL02'
p83
F0.0
sS'MDL03'
p84
F0.0
sS'MDL04'
p85
F0.0
sS'MDL05'
p86
F0.0
sS'MDL06'
p87
F0.0
sS'MDL07'
p88
F0.0
sS'MDR16'
p89
F0.02200000000000002
sS'MVL20'
p90
F0.0030000000000000027
sS'MDR11'
p91
F0.0
sS'MVL22'
p92
F-0.0010000000000000009
sS'MVL23'
p93
F-0.006000000000000005
sS'MDR20'
p94
F0.04600000000000004
sS'MDR21'
p95
F0.009000000000000008
sS'MDR22'
p96
F-0.03399999999999992
sS'MDR10'
p97
F0.0
sS'MDR13'
p98
F0.0
sS'MDR12'
p99
F0.0
sS'MDR07'
p100
F0.0
ss(S'DB04'
p101
S'VD10'
p102
S'AVBR'
p103
tp104
(dp105
g6
F0.09799999999999998
sg7
F0.045999999999999985
sg8
F-0.006000000000000005
sg9
F-0.0020000000000000018
sg10
F0.0
sg11
F0.0
sg12
F0.01100000000000001
sg13
F0.0
sg14
F0.0
sg15
F0.0
sg16
F0.0
sg17
F0.0
sg18
F0.0
sg19
F0.0
sg20
F0.0050000000000000044
sg21
F0.06299999999999994
sg22
F0.0
sg23
F0.0
sg24
F0.02399999999999991
sg25
F0.013999999999999901
sg26
F0.013000000000000012
sg27
F0.007000000000000006
sg28
F-0.028000000000000025
sg29
F0.0
sg30
F0.0
sg31
F0.08299999999999996
sg32
F0.0
sg33
F0.0
sg34
F0.0
sg35
F0.016000000000000014
sg36
F0.0
sg37
F0.013000000000000012
sg38
F0.01200000000000001
sg39
F0.02400000000000002
sg40
F0.16599999999999993
sg41
F-0.020999999999999908
sg42
F0.0
sg43
F0.0
sg44
F0.0
sg45
F0.025000000000000022
sg46
F0.0
sg47
F0.0
sg48
F0.0
sg49
F0.0
sg50
F0.013000000000000012
sg51
F0.01200000000000001
sg52
F0.0
sg53
F0.0
sg54
F0.0
sg55
F0.0
sg56
F0.0
sg57
F0.0
sg58
F0.0
sg59
F0.0
sg60
F0.0
sg61
F0.0
sg62
F0.0
sg63
F0.0
sg64
F0.0
sg65
F0.0
sg66
F0.0
sg67
F0.0
sg68
F0.040000000000000036
sg69
F0.12
sg70
F0.050999999999999934
sg71
F0.017000000000000015
sg72
F0.08999999999999997
sg73
F0.0
sg74
F0.0
sg75
F0.0
sg76
F0.0
sg77
F0.0
sg78
F0.0
sg79
F0.0
sg80
F0.0
sg81
F0.0
sg82
F0.0
sg83
F0.0
sg84
F0.0
sg85
F0.0
sg86
F0.0
sg87
F0.0
sg88
F0.0
sg89
F0.025000000000000022
sg90
F0.017000000000000015
sg91
F0.0
sg92
F0.009999999999999898
sg93
F0.026000000000000023
sg94
F0.02300000000000002
sg95
F0.02200000000000002
sg96
F-0.028999999999999915
sg97
F0.0
sg98
F0.0
sg99
F0.0
sg100
F0.0
ss(S'DB02'
p106
S'DA02'
p107
S'DD02'
p108
tp109
(dp110
g6
F-0.009000000000000008
sg7
F0.07600000000000001
sg8
F0.013000000000000012
sg9
F-0.007999999999999896
sg10
F0.0
sg11
F0.0
sg12
F-0.03799999999999998
sg13
F0.0
sg14
F0.0
sg15
F0.0
sg16
F0.0
sg17
F0.0
sg18
F0.23399999999999999
sg19
F0.0
sg20
F-0.01100000000000001
sg21
F0.0050000000000000044
sg22
F0.0
sg23
F0.0
sg24
F0.0129999999999999
sg25
F-0.008000000000000007
sg26
F0.019000000000000017
sg27
F0.0
sg28
F-0.026000000000000023
sg29
F0.0
sg30
F0.0
sg31
F0.007999999999999896
sg32
F0.0
sg33
F0.0
sg34
F0.0
sg35
F0.0
sg36
F0.0
sg37
F0.0
sg38
F0.0
sg39
F-0.0030000000000000027
sg40
F0.0129999999999999
sg41
F-0.006999999999999895
sg42
F0.0
sg43
F0.0
sg44
F0.0
sg45
F0.0
sg46
F0.0
sg47
F0.0
sg48
F0.0
sg49
F0.0
sg50
F0.0
sg51
F0.0
sg52
F0.0
sg53
F0.0
sg54
F0.0
sg55
F0.0
sg56
F0.0
sg57
F0.0
sg58
F0.0
sg59
F0.0
sg60
F0.0
sg61
F0.0
sg62
F0.0
sg63
F0.0
sg64
F0.0
sg65
F0.0
sg66
F0.0
sg67
F0.0
sg68
F0.015000000000000013
sg69
F-0.017999999999999905
sg70
F-0.008000000000000007
sg71
F0.0
sg72
F-0.013000000000000012
sg73
F0.0
sg74
F0.0
sg75
F0.0
sg76
F0.0
sg77
F0.0
sg78
F0.34199999999999997
sg79
F0.0
sg80
F0.23099999999999998
sg81
F0.0
sg82
F0.0
sg83
F0.0
sg84
F0.0
sg85
F0.0
sg86
F0.0
sg87
F0.0
sg88
F0.0
sg89
F0.0
sg90
F0.0
sg91
F0.0
sg92
F-0.0010000000000000009
sg93
F-0.010000000000000009
sg94
F-0.007000000000000006
sg95
F0.01100000000000001
sg96
F-0.006000000000000005
sg97
F0.19299999999999995
sg98
F0.0
sg99
F0.0
sg100
F0.0
ss(S'AS03'
p111
S'DA02'
p112
S'DD02'
p113
tp114
(dp115
g6
F-0.02200000000000002
sg7
F0.067
sg8
F0.0030000000000000027
sg9
F-0.026999999999999913
sg10
F0.0
sg11
F0.0
sg12
F0.0010000000000000009
sg13
F0.0
sg14
F0.0
sg15
F0.0
sg16
F0.0
sg17
F0.0
sg18
F0.21199999999999997
sg19
F0.0
sg20
F-0.03599999999999992
sg21
F0.017999999999999905
sg22
F0.0
sg23
F0.0
sg24
F-0.02100000000000002
sg25
F0.007999999999999896
sg26
F0.02300000000000002
sg27
F0.0
sg28
F-0.0050000000000000044
sg29
F0.0
sg30
F0.0
sg31
F0.010999999999999899
sg32
F0.0
sg33
F0.0
sg34
F0.0
sg35
F0.0
sg36
F0.0
sg37
F0.0
sg38
F0.0
sg39
F-0.020000000000000018
sg40
F0.007999999999999896
sg41
F0.015000000000000013
sg42
F0.0
sg43
F0.0
sg44
F0.0
sg45
F0.0
sg46
F0.0
sg47
F0.0
sg48
F0.0
sg49
F0.0
sg50
F0.0
sg51
F0.0
sg52
F0.0
sg53
F0.0
sg54
F0.0
sg55
F0.0
sg56
F0.0
sg57
F0.0
sg58
F0.0
sg59
F0.0
sg60
F0.0
sg61
F0.0
sg62
F0.0
sg63
F0.0
sg64
F0.0
sg65
F0.0
sg66
F0.0
sg67
F0.0
sg68
F0.020000000000000018
sg69
F-0.019999999999999907
sg70
F-0.006000000000000005
sg71
F0.0
sg72
F0.0040000000000000036
sg73
F0.0
sg74
F0.0
sg75
F0.0
sg76
F0.0
sg77
F0.0
sg78
F0.351
sg79
F0.0
sg80
F0.22799999999999998
sg81
F0.0
sg82
F0.0
sg83
F0.0
sg84
F0.0
sg85
F0.0
sg86
F0.0
sg87
F0.0
sg88
F0.0
sg89
F0.0
sg90
F0.0
sg91
F0.0
sg92
F-0.031000000000000028
sg93
F0.02300000000000002
sg94
F-0.010000000000000009
sg95
F0.01200000000000001
sg96
F-0.014999999999999902
sg97
F0.20899999999999996
sg98
F0.0
sg99
F0.0
sg100
F0.0
ss(S'DA03'
p116
S'DA02'
p117
S'DD01'
p118
tp119
(dp120
g6
F-0.015000000000000013
sg7
F0.03799999999999998
sg8
F0.0020000000000000018
sg9
F0.0
sg10
F0.0
sg11
F0.0
sg12
F-0.02400000000000002
sg13
F0.0
sg14
F0.0
sg15
F0.0
sg16
F0.0
sg17
F0.0
sg18
F0.32899999999999996
sg19
F0.0
sg20
F-0.0030000000000000027
sg21
F0.008000000000000007
sg22
F0.0
sg23
F0.0
sg24
F-0.015000000000000013
sg25
F-0.0030000000000000027
sg26
F0.017000000000000015
sg27
F0.0
sg28
F-0.016000000000000014
sg29
F0.0
sg30
F0.0
sg31
F0.0019999999999998908
sg32
F0.0
sg33
F0.0
sg34
F0.0
sg35
F0.0
sg36
F0.0
sg37
F0.0
sg38
F0.0
sg39
F-0.0010000000000000009
sg40
F0.005999999999999894
sg41
F0.013000000000000012
sg42
F0.0
sg43
F0.0
sg44
F0.0
sg45
F0.0
sg46
F0.0
sg47
F0.0
sg48
F0.0
sg49
F0.0
sg50
F0.0
sg51
F0.0
sg52
F0.0
sg53
F0.0
sg54
F0.0
sg55
F0.0
sg56
F0.0
sg57
F0.0
sg58
F0.0
sg59
F0.0
sg60
F0.0
sg61
F0.0
sg62
F0.0
sg63
F0.0
sg64
F0.0
sg65
F0.0
sg66
F0.0
sg67
F0.0
sg68
F0.017000000000000015
sg69
F-0.0040000000000000036
sg70
F-0.01100000000000001
sg71
F0.0
sg72
F-0.009000000000000008
sg73
F0.0
sg74
F0.0
sg75
F0.0
sg76
F0.0
sg77
F0.0
sg78
F0.20599999999999996
sg79
F0.0
sg80
F0.14800000000000002
sg81
F0.0
sg82
F0.0
sg83
F0.0
sg84
F0.0
sg85
F0.0
sg86
F0.0
sg87
F0.0
sg88
F0.0
sg89
F0.0
sg90
F0.0
sg91
F0.0
sg92
F0.0009999999999998899
sg93
F0.014000000000000012
sg94
F-0.014999999999999902
sg95
F0.01100000000000001
sg96
F-0.0129999999999999
sg97
F0.31699999999999995
sg98
F0.0
sg99
F0.0
sg100
F0.0
ss(S'DA03'
p121
S'DA02'
p122
S'DD02'
p123
tp124
(dp125
g6
F-0.013000000000000012
sg7
F0.030000000000000027
sg8
F0.009000000000000008
sg9
F-0.030999999999999917
sg10
F0.0
sg11
F0.0
sg12
F-0.014000000000000012
sg13
F0.0
sg14
F0.0
sg15
F0.0
sg16
F0.0
sg17
F0.0
sg18
F0.22899999999999998
sg19
F0.0
sg20
F-0.0010000000000000009
sg21
F0.008000000000000007
sg22
F0.0
sg23
F0.0
sg24
F0.02199999999999991
sg25
F-0.013000000000000012
sg26
F0.0030000000000000027
sg27
F0.0
sg28
F-0.009000000000000008
sg29
F0.0
sg30
F0.0
sg31
F-0.006000000000000005
sg32
F0.0
sg33
F0.0
sg34
F0.0
sg35
F0.0
sg36
F0.0
sg37
F0.0
sg38
F0.0
sg39
F0.0010000000000000009
sg40
F-0.0020000000000000018
sg41
F-0.009999999999999898
sg42
F0.0
sg43
F0.0
sg44
F0.0
sg45
F0.0
sg46
F0.0
sg47
F0.0
sg48
F0.0
sg49
F0.0
sg50
F0.0
sg51
F0.0
sg52
F0.0
sg53
F0.0
sg54
F0.0
sg55
F0.0
sg56
F0.0
sg57
F0.0
sg58
F0.0
sg59
F0.0
sg60
F0.0
sg61
F0.0
sg62
F0.0
sg63
F0.0
sg64
F0.0
sg65
F0.0
sg66
F0.0
sg67
F0.0
sg68
F0.019000000000000017
sg69
F-0.015999999999999903
sg70
F-0.007000000000000006
sg71
F0.0
sg72
F-0.009000000000000008
sg73
F0.0
sg74
F0.0
sg75
F0.0
sg76
F0.0
sg77
F0.0
sg78
F0.32999999999999996
sg79
F0.0
sg80
F0.20999999999999996
sg81
F0.0
sg82
F0.0
sg83
F0.0
sg84
F0.0
sg85
F0.0
sg86
F0.0
sg87
F0.0
sg88
F0.0
sg89
F0.0
sg90
F0.0
sg91
F0.0
sg92
F-0.029000000000000026
sg93
F0.017000000000000015
sg94
F-0.0010000000000000009
sg95
F0.016000000000000014
sg96
F0.03600000000000003
sg97
F0.23099999999999998
sg98
F0.0
sg99
F0.0
sg100
F0.0
ss(S'VB02'
p126
S'VA03'
p127
S'PVNL'
p128
tp129
(dp130
g6
F-0.008000000000000007
sg7
F0.030000000000000027
sg8
F-0.0020000000000000018
sg9
F-0.009999999999999898
sg10
F0.0
sg11
F0.0
sg12
F-0.01100000000000001
sg13
F0.0
sg14
F0.0
sg15
F0.0
sg16
F0.0
sg17
F0.0
sg18
F0.0
sg19
F0.0
sg20
F-0.017000000000000015
sg21
F0.009000000000000008
sg22
F0.0
sg23
F0.0
sg24
F0.02199999999999991
sg25
F-0.015000000000000013
sg26
F0.008000000000000007
sg27
F0.0
sg28
F0.004999999999999893
sg29
F0.0
sg30
F0.0
sg31
F0.0129999999999999
sg32
F0.0
sg33
F0.0
sg34
F0.0
sg35
F0.0
sg36
F0.0
sg37
F0.0
sg38
F0.0
sg39
F-0.017000000000000015
sg40
F-0.009000000000000008
sg41
F0.0
sg42
F0.0
sg43
F0.0
sg44
F0.0
sg45
F0.0
sg46
F0.0
sg47
F0.0
sg48
F0.0
sg49
F0.0
sg50
F0.0
sg51
F0.0
sg52
F0.0
sg53
F0.0
sg54
F0.0
sg55
F0.0
sg56
F0.0
sg57
F0.0
sg58
F0.0
sg59
F0.0
sg60
F0.0
sg61
F0.0
sg62
F0.46099999999999997
sg63
F0.0
sg64
F0.0
sg65
F0.0
sg66
F0.0
sg67
F0.5389999999999999
sg68
F0.015000000000000013
sg69
F-0.0010000000000000009
sg70
F0.0010000000000000009
sg71
F0.0
sg72
F-0.0050000000000000044
sg73
F0.0
sg74
F0.0
sg75
F0.0
sg76
F0.0
sg77
F0.0
sg78
F0.0
sg79
F0.0
sg80
F0.0
sg81
F0.0
sg82
F0.0
sg83
F0.0
sg84
F0.0
sg85
F0.0
sg86
F0.0
sg87
F0.0
sg88
F0.0
sg89
F0.0
sg90
F0.0
sg91
F0.0
sg92
F-0.018000000000000016
sg93
F0.0
sg94
F-0.017999999999999905
sg95
F0.03300000000000003
sg96
F-0.0050000000000000044
sg97
F0.0
sg98
F0.0
sg99
F0.0
sg100
F0.0
ss(S'AS03'
p131
S'DA03'
p132
S'DD02'
p133
tp134
(dp135
g6
F-0.009000000000000008
sg7
F0.02300000000000002
sg8
F0.020999999999999908
sg9
F-0.008999999999999897
sg10
F0.0
sg11
F0.0
sg12
F0.026000000000000023
sg13
F0.0
sg14
F0.0
sg15
F0.0
sg16
F0.0
sg17
F0.0
sg18
F0.241
sg19
F0.0
sg20
F-0.04299999999999993
sg21
F0.007000000000000006
sg22
F0.0
sg23
F0.0
sg24
F0.0039999999999998925
sg25
F0.0010000000000000009
sg26
F-0.0010000000000000009
sg27
F0.0
sg28
F0.0020000000000000018
sg29
F0.0
sg30
F0.0
sg31
F0.0
sg32
F0.0
sg33
F0.0
sg34
F0.0
sg35
F0.0
sg36
F0.0
sg37
F0.0
sg38
F0.0
sg39
F-0.010000000000000009
sg40
F0.0029999999999998916
sg41
F-0.008999999999999897
sg42
F0.0
sg43
F0.0
sg44
F0.0
sg45
F0.0
sg46
F0.0
sg47
F0.0
sg48
F0.0
sg49
F0.0
sg50
F0.0
sg51
F0.0
sg52
F0.0
sg53
F0.0
sg54
F0.0
sg55
F0.0
sg56
F0.0
sg57
F0.0
sg58
F0.0
sg59
F0.0
sg60
F0.0
sg61
F0.0
sg62
F0.0
sg63
F0.0
sg64
F0.0
sg65
F0.0
sg66
F0.0
sg67
F0.0
sg68
F0.013000000000000012
sg69
F-0.014999999999999902
sg70
F0.010999999999999899
sg71
F0.0
sg72
F0.0010000000000000009
sg73
F0.0
sg74
F0.0
sg75
F0.0
sg76
F0.0
sg77
F0.0
sg78
F0.29800000000000004
sg79
F0.0
sg80
F0.20899999999999996
sg81
F0.0
sg82
F0.0
sg83
F0.0
sg84
F0.0
sg85
F0.0
sg86
F0.0
sg87
F0.0
sg88
F0.0
sg89
F0.0
sg90
F0.0
sg91
F0.0
sg92
F-0.0020000000000000018
sg93
F-0.025000000000000022
sg94
F0.0030000000000000027
sg95
F0.030000000000000027
sg96
F-0.02199999999999991
sg97
F0.252
sg98
F0.0
sg99
F0.0
sg100
F0.0
ss(S'VA03'
p136
S'VD03'
p137
S'VB02'
p138
tp139
(dp140
g6
F-0.009000000000000008
sg7
F0.07200000000000001
sg8
F0.0040000000000000036
sg9
F-0.015999999999999903
sg10
F0.0
sg11
F0.0
sg12
F0.0
sg13
F0.0
sg14
F0.0
sg15
F0.0
sg16
F0.0
sg17
F0.0
sg18
F0.0
sg19
F0.0
sg20
F0.007000000000000006
sg21
F0.0050000000000000044
sg22
F0.0
sg23
F0.0
sg24
F-0.02400000000000002
sg25
F-0.018000000000000016
sg26
F0.039000000000000035
sg27
F0.0
sg28
F0.007999999999999896
sg29
F0.0
sg30
F0.0
sg31
F-0.0040000000000000036
sg32
F0.0
sg33
F0.0
sg34
F0.0
sg35
F0.0
sg36
F0.0
sg37
F0.0
sg38
F0.0
sg39
F-0.0040000000000000036
sg40
F-0.0040000000000000036
sg41
F-0.0010000000000000009
sg42
F0.0
sg43
F0.0
sg44
F0.0
sg45
F0.0
sg46
F0.0
sg47
F0.0
sg48
F0.0
sg49
F0.0
sg50
F0.0
sg51
F0.0
sg52
F0.0
sg53
F0.0
sg54
F0.0
sg55
F0.0
sg56
F0.0
sg57
F0.0
sg58
F0.0
sg59
F0.0
sg60
F0.0
sg61
F0.0
sg62
F0.0
sg63
F0.0
sg64
F0.0
sg65
F0.0
sg66
F0.0
sg67
F1.0
sg68
F0.0
sg69
F-0.008000000000000007
sg70
F0.004999999999999893
sg71
F0.0
sg72
F0.0050000000000000044
sg73
F0.0
sg74
F0.0
sg75
F0.0
sg76
F0.0
sg77
F0.0
sg78
F0.0
sg79
F0.0
sg80
F0.0
sg81
F0.0
sg82
F0.0
sg83
F0.0
sg84
F0.0
sg85
F0.0
sg86
F0.0
sg87
F0.0
sg88
F0.0
sg89
F0.0
sg90
F0.0
sg91
F0.0
sg92
F-0.026000000000000023
sg93
F0.017000000000000015
sg94
F-0.009000000000000008
sg95
F0.0
sg96
F-0.038999999999999924
sg97
F0.0
sg98
F0.0
sg99
F0.0
sg100
F0.0
ss(S'PDEL'
p141
S'VB10'
p142
S'AVFR'
p143
tp144
(dp145
g6
F-0.0050000000000000044
sg7
F0.05399999999999999
sg8
F0.21199999999999997
sg9
F-0.03799999999999992
sg10
F0.0
sg11
F0.0
sg12
F-0.0040000000000000036
sg13
F0.0
sg14
F0.0
sg15
F0.0
sg16
F0.0
sg17
F0.0
sg18
F0.0
sg19
F0.0
sg20
F-0.006000000000000005
sg21
F0.029999999999999916
sg22
F0.0
sg23
F0.0
sg24
F0.03699999999999992
sg25
F0.18199999999999994
sg26
F0.050000000000000044
sg27
F0.0
sg28
F-0.013000000000000012
sg29
F0.0
sg30
F0.0
sg31
F-0.006000000000000005
sg32
F0.0
sg33
F0.0
sg34
F0.0
sg35
F0.0
sg36
F0.0
sg37
F0.245
sg38
F0.0
sg39
F-0.006000000000000005
sg40
F0.006999999999999895
sg41
F0.006000000000000005
sg42
F0.0
sg43
F0.0
sg44
F0.0
sg45
F0.0
sg46
F0.0
sg47
F0.0
sg48
F0.0
sg49
F0.0
sg50
F0.21999999999999997
sg51
F0.0
sg52
F0.0
sg53
F0.0
sg54
F0.0
sg55
F0.0
sg56
F0.0
sg57
F0.0
sg58
F0.0
sg59
F0.0
sg60
F0.0
sg61
F0.0
sg62
F0.0
sg63
F0.0
sg64
F0.0
sg65
F0.0
sg66
F0.0
sg67
F0.0
sg68
F0.0030000000000000027
sg69
F-0.016999999999999904
sg70
F-0.019000000000000017
sg71
F0.0
sg72
F0.0040000000000000036
sg73
F0.0
sg74
F0.0
sg75
F0.0
sg76
F0.0
sg77
F0.0
sg78
F0.0
sg79
F0.0
sg80
F0.0
sg81
F0.0
sg82
F0.0
sg83
F0.0
sg84
F0.0
sg85
F0.0
sg86
F0.0
sg87
F0.0
sg88
F0.0
sg89
F0.0
sg90
F0.0
sg91
F0.0
sg92
F0.03399999999999992
sg93
F0.03300000000000003
sg94
F-0.0129999999999999
sg95
F0.01200000000000001
sg96
F-0.0020000000000000018
sg97
F0.0
sg98
F0.0
sg99
F0.0
sg100
F0.0
ss(S'DB02'
p146
S'DA02'
p147
S'DD01'
p148
tp149
(dp150
g6
F-0.0030000000000000027
sg7
F0.061
sg8
F0.025999999999999912
sg9
F-0.02499999999999991
sg10
F0.0
sg11
F0.0
sg12
F-0.015000000000000013
sg13
F0.0
sg14
F0.0
sg15
F0.0
sg16
F0.0
sg17
F0.0
sg18
F0.31999999999999995
sg19
F0.0
sg20
F-0.02100000000000002
sg21
F0.013999999999999901
sg22
F0.0
sg23
F0.0
sg24
F-0.01100000000000001
sg25
F-0.013000000000000012
sg26
F0.009000000000000008
sg27
F0.0
sg28
F-0.007000000000000006
sg29
F0.0
sg30
F0.0
sg31
F0.019999999999999907
sg32
F0.0
sg33
F0.0
sg34
F0.0
sg35
F0.0
sg36
F0.0
sg37
F0.0
sg38
F0.0
sg39
F0.01100000000000001
sg40
F-0.010000000000000009
sg41
F-0.0029999999999998916
sg42
F0.0
sg43
F0.0
sg44
F0.0
sg45
F0.0
sg46
F0.0
sg47
F0.0
sg48
F0.0
sg49
F0.0
sg50
F0.0
sg51
F0.0
sg52
F0.0
sg53
F0.0
sg54
F0.0
sg55
F0.0
sg56
F0.0
sg57
F0.0
sg58
F0.0
sg59
F0.0
sg60
F0.0
sg61
F0.0
sg62
F0.0
sg63
F0.0
sg64
F0.0
sg65
F0.0
sg66
F0.0
sg67
F0.0
sg68
F-0.010000000000000009
sg69
F-0.015999999999999903
sg70
F-0.015000000000000013
sg71
F0.0
sg72
F0.0050000000000000044
sg73
F0.0
sg74
F0.0
sg75
F0.0
sg76
F0.0
sg77
F0.0
sg78
F0.19299999999999995
sg79
F0.0
sg80
F0.16300000000000003
sg81
F0.0
sg82
F0.0
sg83
F0.0
sg84
F0.0
sg85
F0.0
sg86
F0.0
sg87
F0.0
sg88
F0.0
sg89
F0.0
sg90
F0.0
sg91
F0.0
sg92
F-0.02400000000000002
sg93
F0.020000000000000018
sg94
F-0.010000000000000009
sg95
F0.02300000000000002
sg96
F-0.006000000000000005
sg97
F0.32399999999999995
sg98
F0.0
sg99
F0.0
sg100
F0.0
ss(S'VB02'
p151
S'VD03'
p152
S'PVNL'
p153
tp154
(dp155
g6
F-0.0040000000000000036
sg7
F0.03400000000000003
sg8
F0.0050000000000000044
sg9
F0.007000000000000006
sg10
F0.0
sg11
F0.0
sg12
F-0.02100000000000002
sg13
F0.0
sg14
F0.0
sg15
F0.0
sg16
F0.0
sg17
F0.0
sg18
F0.0
sg19
F0.0
sg20
F-0.03799999999999992
sg21
F-0.015000000000000013
sg22
F0.0
sg23
F0.0
sg24
F0.004999999999999893
sg25
F0.013999999999999901
sg26
F0.010000000000000009
sg27
F0.0
sg28
F-0.013000000000000012
sg29
F0.0
sg30
F0.0
sg31
F0.006999999999999895
sg32
F0.0
sg33
F0.0
sg34
F0.0
sg35
F0.0
sg36
F0.0
sg37
F0.0
sg38
F0.0
sg39
F-0.01200000000000001
sg40
F0.008999999999999897
sg41
F-0.0039999999999998925
sg42
F0.0
sg43
F0.0
sg44
F0.0
sg45
F0.0
sg46
F0.0
sg47
F0.0
sg48
F0.0
sg49
F0.0
sg50
F0.0
sg51
F0.0
sg52
F0.0
sg53
F0.0
sg54
F0.0
sg55
F0.0
sg56
F0.0
sg57
F0.0
sg58
F0.0
sg59
F0.0
sg60
F0.0
sg61
F0.0
sg62
F0.45599999999999996
sg63
F0.0
sg64
F0.0
sg65
F0.0
sg66
F0.0
sg67
F0.544
sg68
F0.028000000000000025
sg69
F-0.0010000000000000009
sg70
F-0.007000000000000006
sg71
F0.0
sg72
F0.0050000000000000044
sg73
F0.0
sg74
F0.0
sg75
F0.0
sg76
F0.0
sg77
F0.0
sg78
F0.0
sg79
F0.0
sg80
F0.0
sg81
F0.0
sg82
F0.0
sg83
F0.0
sg84
F0.0
sg85
F0.0
sg86
F0.0
sg87
F0.0
sg88
F0.0
sg89
F0.0
sg90
F0.0
sg91
F0.0
sg92
F-0.029000000000000026
sg93
F0.008000000000000007
sg94
F-0.010000000000000009
sg95
F0.02400000000000002
sg96
F-0.0020000000000000018
sg97
F0.0
sg98
F0.0
sg99
F0.0
sg100
F0.0
ss(S'AS03'
p156
S'DA03'
p157
S'DA02'
p158
tp159
(dp160
g6
F-0.010000000000000009
sg7
F0.031000000000000028
sg8
F0.009000000000000008
sg9
F-0.03199999999999992
sg10
F0.0
sg11
F0.0
sg12
F0.016000000000000014
sg13
F0.0
sg14
F0.0
sg15
F0.0
sg16
F0.0
sg17
F0.0
sg18
F0.393
sg19
F0.0
sg20
F-0.006000000000000005
sg21
F0.027999999999999914
sg22
F0.0
sg23
F0.0
sg24
F0.0030000000000000027
sg25
F-0.02100000000000002
sg26
F0.0010000000000000009
sg27
F0.0
sg28
F0.004999999999999893
sg29
F0.0
sg30
F0.0
sg31
F0.006999999999999895
sg32
F0.0
sg33
F0.0
sg34
F0.0
sg35
F0.0
sg36
F0.0
sg37
F0.0
sg38
F0.0
sg39
F-0.0010000000000000009
sg40
F-0.0030000000000000027
sg41
F-0.005999999999999894
sg42
F0.0
sg43
F0.0
sg44
F0.0
sg45
F0.0
sg46
F0.0
sg47
F0.0
sg48
F0.0
sg49
F0.0
sg50
F0.0
sg51
F0.0
sg52
F0.0
sg53
F0.0
sg54
F0.0
sg55
F0.0
sg56
F0.0
sg57
F0.0
sg58
F0.0
sg59
F0.0
sg60
F0.0
sg61
F0.0
sg62
F0.0
sg63
F0.0
sg64
F0.0
sg65
F0.0
sg66
F0.0
sg67
F0.0
sg68
F0.0050000000000000044
sg69
F-0.015999999999999903
sg70
F-0.015000000000000013
sg71
F0.0
sg72
F-0.006000000000000005
sg73
F0.0
sg74
F0.0
sg75
F0.0
sg76
F0.0
sg77
F0.0
sg78
F0.18799999999999994
sg79
F0.0
sg80
F0.15100000000000002
sg81
F0.0
sg82
F0.0
sg83
F0.0
sg84
F0.0
sg85
F0.0
sg86
F0.0
sg87
F0.0
sg88
F0.0
sg89
F0.0
sg90
F0.0
sg91
F0.0
sg92
F-0.010000000000000009
sg93
F0.013000000000000012
sg94
F-0.0050000000000000044
sg95
F0.039000000000000035
sg96
F-0.025999999999999912
sg97
F0.268
sg98
F0.0
sg99
F0.0
sg100
F0.0
ss(S'DB02'
p161
S'AS03'
p162
S'DA02'
p163
tp164
(dp165
g6
F-0.01200000000000001
sg7
F0.027000000000000024
sg8
F0.016999999999999904
sg9
F-0.040999999999999925
sg10
F0.0
sg11
F0.0
sg12
F-0.04099999999999998
sg13
F0.0
sg14
F0.0
sg15
F0.0
sg16
F0.0
sg17
F0.0
sg18
F0.32599999999999996
sg19
F0.0
sg20
F0.019000000000000017
sg21
F0.019999999999999907
sg22
F0.0
sg23
F0.0
sg24
F-0.03200000000000003
sg25
F0.0030000000000000027
sg26
F0.026000000000000023
sg27
F0.0
sg28
F-0.02300000000000002
sg29
F0.0
sg30
F0.0
sg31
F-0.009000000000000008
sg32
F0.0
sg33
F0.0
sg34
F0.0
sg35
F0.0
sg36
F0.0
sg37
F0.0
sg38
F0.0
sg39
F-0.009000000000000008
sg40
F-0.0030000000000000027
sg41
F0.0
sg42
F0.0
sg43
F0.0
sg44
F0.0
sg45
F0.0
sg46
F0.0
sg47
F0.0
sg48
F0.0
sg49
F0.0
sg50
F0.0
sg51
F0.0
sg52
F0.0
sg53
F0.0
sg54
F0.0
sg55
F0.0
sg56
F0.0
sg57
F0.0
sg58
F0.0
sg59
F0.0
sg60
F0.0
sg61
F0.0
sg62
F0.0
sg63
F0.0
sg64
F0.0
sg65
F0.0
sg66
F0.0
sg67
F0.0
sg68
F0.01200000000000001
sg69
F-0.0040000000000000036
sg70
F-0.013000000000000012
sg71
F0.0
sg72
F0.010000000000000009
sg73
F0.0
sg74
F0.0
sg75
F0.0
sg76
F0.0
sg77
F0.0
sg78
F0.22099999999999997
sg79
F0.0
sg80
F0.14500000000000002
sg81
F0.0
sg82
F0.0
sg83
F0.0
sg84
F0.0
sg85
F0.0
sg86
F0.0
sg87
F0.0
sg88
F0.0
sg89
F0.0
sg90
F0.0
sg91
F0.0
sg92
F-0.01100000000000001
sg93
F0.020000000000000018
sg94
F0.008000000000000007
sg95
F0.05900000000000005
sg96
F-0.02299999999999991
sg97
F0.30800000000000005
sg98
F0.0
sg99
F0.0
sg100
F0.0
ss(S'DB04'
p166
S'VB08'
p167
S'AVBR'
p168
tp169
(dp170
g6
F0.07299999999999995
sg7
F0.046999999999999986
sg8
F0.028999999999999915
sg9
F0.006000000000000005
sg10
F0.0
sg11
F0.0
sg12
F-0.007000000000000006
sg13
F0.0
sg14
F0.0
sg15
F0.0
sg16
F0.0
sg17
F0.0
sg18
F0.0
sg19
F0.0
sg20
F0.02100000000000002
sg21
F0.04599999999999993
sg22
F0.0
sg23
F0.0
sg24
F-0.019000000000000017
sg25
F-0.0040000000000000036
sg26
F0.039000000000000035
sg27
F0.007000000000000006
sg28
F-0.006000000000000005
sg29
F0.0
sg30
F0.0
sg31
F0.07099999999999995
sg32
F0.0
sg33
F0.0
sg34
F0.0
sg35
F0.029000000000000026
sg36
F0.0
sg37
F0.010000000000000009
sg38
F0.015000000000000013
sg39
F0.019000000000000017
sg40
F0.15599999999999992
sg41
F-0.0039999999999998925
sg42
F0.0
sg43
F0.0
sg44
F0.0
sg45
F0.018000000000000016
sg46
F0.0
sg47
F0.0
sg48
F0.0
sg49
F0.0
sg50
F0.014000000000000012
sg51
F0.026000000000000023
sg52
F0.0
sg53
F0.0
sg54
F0.0
sg55
F0.0
sg56
F0.0
sg57
F0.0
sg58
F0.0
sg59
F0.0
sg60
F0.0
sg61
F0.0
sg62
F0.0
sg63
F0.0
sg64
F0.0
sg65
F0.0
sg66
F0.0
sg67
F0.0
sg68
F0.04600000000000004
sg69
F0.136
sg70
F0.050999999999999934
sg71
F0.025000000000000022
sg72
F0.07299999999999995
sg73
F0.0
sg74
F0.0
sg75
F0.0
sg76
F0.0
sg77
F0.0
sg78
F0.0
sg79
F0.0
sg80
F0.0
sg81
F0.0
sg82
F0.0
sg83
F0.0
sg84
F0.0
sg85
F0.0
sg86
F0.0
sg87
F0.0
sg88
F0.0
sg89
F0.029000000000000026
sg90
F0.006000000000000005
sg91
F0.0
sg92
F-0.018000000000000016
sg93
F0.03600000000000003
sg94
F0.038000000000000034
sg95
F0.020000000000000018
sg96
F-0.027999999999999914
sg97
F0.0
sg98
F0.0
sg99
F0.0
sg100
F0.0
ss(S'DA03'
p171
S'DD01'
p172
S'DD02'
p173
tp174
(dp175
g6
F-0.01100000000000001
sg7
F0.03999999999999998
sg8
F0.03299999999999992
sg9
F-0.04799999999999993
sg10
F0.0
sg11
F0.0
sg12
F0.007000000000000006
sg13
F0.0
sg14
F0.0
sg15
F0.0
sg16
F0.0
sg17
F0.0
sg18
F0.20899999999999996
sg19
F0.0
sg20
F0.0020000000000000018
sg21
F0.007000000000000006
sg22
F0.0
sg23
F0.0
sg24
F-0.0040000000000000036
sg25
F-0.017000000000000015
sg26
F0.0020000000000000018
sg27
F0.0
sg28
F-0.026000000000000023
sg29
F0.0
sg30
F0.0
sg31
F0.018999999999999906
sg32
F0.0
sg33
F0.0
sg34
F0.0
sg35
F0.0
sg36
F0.0
sg37
F0.0
sg38
F0.0
sg39
F-0.015000000000000013
sg40
F0.0019999999999998908
sg41
F-0.03699999999999992
sg42
F0.0
sg43
F0.0
sg44
F0.0
sg45
F0.0
sg46
F0.0
sg47
F0.0
sg48
F0.0
sg49
F0.0
sg50
F0.0
sg51
F0.0
sg52
F0.0
sg53
F0.0
sg54
F0.0
sg55
F0.0
sg56
F0.0
sg57
F0.0
sg58
F0.0
sg59
F0.0
sg60
F0.0
sg61
F0.0
sg62
F0.0
sg63
F0.0
sg64
F0.0
sg65
F0.0
sg66
F0.0
sg67
F0.0
sg68
F0.01100000000000001
sg69
F-0.0030000000000000027
sg70
F-0.007000000000000006
sg71
F0.0
sg72
F0.007000000000000006
sg73
F0.0
sg74
F0.0
sg75
F0.0
sg76
F0.0
sg77
F0.0
sg78
F0.348
sg79
F0.0
sg80
F0.22399999999999998
sg81
F0.0
sg82
F0.0
sg83
F0.0
sg84
F0.0
sg85
F0.0
sg86
F0.0
sg87
F0.0
sg88
F0.0
sg89
F0.0
sg90
F0.0
sg91
F0.0
sg92
F0.028999999999999915
sg93
F-0.017000000000000015
sg94
F-0.013999999999999901
sg95
F0.04400000000000004
sg96
F-0.0040000000000000036
sg97
F0.21899999999999997
sg98
F0.0
sg99
F0.0
sg100
F0.0
ss(S'AS03'
p176
S'DA03'
p177
S'DD01'
p178
tp179
(dp180
g6
F-0.01100000000000001
sg7
F0.059
sg8
F-0.009000000000000008
sg9
F-0.0030000000000000027
sg10
F0.0
sg11
F0.0
sg12
F-0.01200000000000001
sg13
F0.0
sg14
F0.0
sg15
F0.0
sg16
F0.0
sg17
F0.0
sg18
F0.36
sg19
F0.0
sg20
F-0.01200000000000001
sg21
F0.0020000000000000018
sg22
F0.0
sg23
F0.0
sg24
F0.014999999999999902
sg25
F-0.007000000000000006
sg26
F-0.007999999999999896
sg27
F0.0
sg28
F-0.0020000000000000018
sg29
F0.0
sg30
F0.0
sg31
F0.0129999999999999
sg32
F0.0
sg33
F0.0
sg34
F0.0
sg35
F0.0
sg36
F0.0
sg37
F0.0
sg38
F0.0
sg39
F-0.008000000000000007
sg40
F0.0019999999999998908
sg41
F-0.0129999999999999
sg42
F0.0
sg43
F0.0
sg44
F0.0
sg45
F0.0
sg46
F0.0
sg47
F0.0
sg48
F0.0
sg49
F0.0
sg50
F0.0
sg51
F0.0
sg52
F0.0
sg53
F0.0
sg54
F0.0
sg55
F0.0
sg56
F0.0
sg57
F0.0
sg58
F0.0
sg59
F0.0
sg60
F0.0
sg61
F0.0
sg62
F0.0
sg63
F0.0
sg64
F0.0
sg65
F0.0
sg66
F0.0
sg67
F0.0
sg68
F0.020000000000000018
sg69
F0.0050000000000000044
sg70
F-0.018000000000000016
sg71
F0.0
sg72
F0.0030000000000000027
sg73
F0.0
sg74
F0.0
sg75
F0.0
sg76
F0.0
sg77
F0.0
sg78
F0.17100000000000004
sg79
F0.0
sg80
F0.16400000000000003
sg81
F0.0
sg82
F0.0
sg83
F0.0
sg84
F0.0
sg85
F0.0
sg86
F0.0
sg87
F0.0
sg88
F0.0
sg89
F0.0
sg90
F0.0
sg91
F0.0
sg92
F-0.0050000000000000044
sg93
F0.016000000000000014
sg94
F-0.02499999999999991
sg95
F0.015000000000000013
sg96
F-0.016999999999999904
sg97
F0.30500000000000005
sg98
F0.0
sg99
F0.0
sg100
F0.0
ss(S'DA06'
p181
S'AVBR'
p182
S'VA11'
p183
tp184
(dp185
g6
F0.07999999999999996
sg7
F0.057999999999999996
sg8
F0.03399999999999992
sg9
F-0.014999999999999902
sg10
F0.0
sg11
F0.0
sg12
F-0.02300000000000002
sg13
F0.0
sg14
F0.0
sg15
F0.0
sg16
F0.0
sg17
F0.0
sg18
F0.0
sg19
F0.0
sg20
F-0.013000000000000012
sg21
F0.04499999999999993
sg22
F0.0
sg23
F0.0
sg24
F0.004999999999999893
sg25
F0.016999999999999904
sg26
F0.052000000000000046
sg27
F0.010000000000000009
sg28
F-0.03600000000000003
sg29
F0.0
sg30
F0.0
sg31
F0.06099999999999994
sg32
F0.0
sg33
F0.0
sg34
F0.0
sg35
F0.007000000000000006
sg36
F0.0
sg37
F0.03500000000000003
sg38
F0.0040000000000000036
sg39
F0.015000000000000013
sg40
F0.1269999999999999
sg41
F-0.0129999999999999
sg42
F0.0
sg43
F0.0
sg44
F0.0
sg45
F0.007000000000000006
sg46
F0.0
sg47
F0.0
sg48
F0.0
sg49
F0.0
sg50
F0.040000000000000036
sg51
F0.01100000000000001
sg52
F0.0
sg53
F0.0
sg54
F0.0
sg55
F0.0
sg56
F0.0
sg57
F0.0
sg58
F0.0
sg59
F0.0
sg60
F0.0
sg61
F0.0
sg62
F0.0
sg63
F0.0
sg64
F0.0
sg65
F0.0
sg66
F0.0
sg67
F0.0
sg68
F0.050000000000000044
sg69
F0.125
sg70
F0.04599999999999993
sg71
F0.019000000000000017
sg72
F0.09999999999999998
sg73
F0.0
sg74
F0.0
sg75
F0.0
sg76
F0.0
sg77
F0.0
sg78
F0.0
sg79
F0.0
sg80
F0.0
sg81
F0.0
sg82
F0.0
sg83
F0.0
sg84
F0.0
sg85
F0.0
sg86
F0.0
sg87
F0.0
sg88
F0.0
sg89
F0.02300000000000002
sg90
F0.010000000000000009
sg91
F0.0
sg92
F0.0129999999999999
sg93
F0.028000000000000025
sg94
F0.02400000000000002
sg95
F0.049000000000000044
sg96
F0.0050000000000000044
sg97
F0.0
sg98
F0.0
sg99
F0.0
sg100
F0.0
ss(S'SMDDL'
p186
S'SMDDR'
p187
S'SMBDL'
p188
tp189
(dp190
g6
F-0.02200000000000002
sg7
F0.05299999999999999
sg8
F0.0
sg9
F-0.016999999999999904
sg10
F0.0
sg11
F0.0
sg12
F-0.02300000000000002
sg13
F0.0
sg14
F0.0
sg15
F0.0
sg16
F0.0
sg17
F0.0
sg18
F0.0
sg19
F0.0
sg20
F0.0020000000000000018
sg21
F0.0050000000000000044
sg22
F0.0
sg23
F0.0
sg24
F0.0119999999999999
sg25
F-0.016000000000000014
sg26
F0.030000000000000027
sg27
F0.0
sg28
F-0.01200000000000001
sg29
F0.0
sg30
F0.0
sg31
F0.0009999999999998899
sg32
F0.0
sg33
F0.0
sg34
F0.0
sg35
F0.0
sg36
F0.0
sg37
F0.0
sg38
F0.0
sg39
F-0.008000000000000007
sg40
F0.010999999999999899
sg41
F-0.0129999999999999
sg42
F0.0
sg43
F0.0
sg44
F0.0
sg45
F0.0
sg46
F0.0
sg47
F0.0
sg48
F0.0
sg49
F0.0
sg50
F0.0
sg51
F0.0
sg52
F1.0
sg53
F0.0
sg54
F0.0
sg55
F0.0
sg56
F0.0
sg57
F0.0
sg58
F0.0
sg59
F0.0
sg60
F0.0
sg61
F0.0
sg62
F0.0
sg63
F0.0
sg64
F0.0
sg65
F0.0
sg66
F0.0
sg67
F0.0
sg68
F0.016000000000000014
sg69
F-0.008000000000000007
sg70
F-0.0050000000000000044
sg71
F0.0
sg72
F0.008000000000000007
sg73
F0.0
sg74
F0.0
sg75
F0.0
sg76
F0.0
sg77
F0.0
sg78
F0.0
sg79
F0.0
sg80
F0.0
sg81
F0.0
sg82
F0.0
sg83
F0.0
sg84
F0.0
sg85
F0.0
sg86
F0.0
sg87
F0.0
sg88
F0.0
sg89
F0.0
sg90
F0.0
sg91
F0.0
sg92
F-0.009000000000000008
sg93
F-0.0050000000000000044
sg94
F-0.0050000000000000044
sg95
F0.030000000000000027
sg96
F-0.02499999999999991
sg97
F0.0
sg98
F0.0
sg99
F0.0
sg100
F0.0
ss(S'VA09'
p191
S'DA06'
p192
S'AVBR'
p193
tp194
(dp195
g6
F0.09899999999999998
sg7
F0.069
sg8
F0.018999999999999906
sg9
F-0.0040000000000000036
sg10
F0.0
sg11
F0.0
sg12
F-0.008000000000000007
sg13
F0.0
sg14
F0.0
sg15
F0.0
sg16
F0.0
sg17
F0.0
sg18
F0.0
sg19
F0.0
sg20
F-0.014000000000000012
sg21
F0.04999999999999993
sg22
F0.0
sg23
F0.0
sg24
F0.020999999999999908
sg25
F-0.006000000000000005
sg26
F0.0010000000000000009
sg27
F0.0050000000000000044
sg28
F0.005999999999999894
sg29
F0.0
sg30
F0.0
sg31
F0.07099999999999995
sg32
F0.0
sg33
F0.0
sg34
F0.0
sg35
F0.008000000000000007
sg36
F0.0
sg37
F0.006000000000000005
sg38
F0.03500000000000003
sg39
F0.020000000000000018
sg40
F0.1459999999999999
sg41
F-0.02499999999999991
sg42
F0.0
sg43
F0.0
sg44
F0.0
sg45
F0.007000000000000006
sg46
F0.0
sg47
F0.0
sg48
F0.0
sg49
F0.0
sg50
F0.008000000000000007
sg51
F0.03400000000000003
sg52
F0.0
sg53
F0.0
sg54
F0.0
sg55
F0.0
sg56
F0.0
sg57
F0.0
sg58
F0.0
sg59
F0.0
sg60
F0.0
sg61
F0.0
sg62
F0.0
sg63
F0.0
sg64
F0.0
sg65
F0.0
sg66
F0.0
sg67
F0.0
sg68
F0.04300000000000004
sg69
F0.15800000000000003
sg70
F0.051999999999999935
sg71
F0.025000000000000022
sg72
F0.07999999999999996
sg73
F0.0
sg74
F0.0
sg75
F0.0
sg76
F0.0
sg77
F0.0
sg78
F0.0
sg79
F0.0
sg80
F0.0
sg81
F0.0
sg82
F0.0
sg83
F0.0
sg84
F0.0
sg85
F0.0
sg86
F0.0
sg87
F0.0
sg88
F0.0
sg89
F0.028000000000000025
sg90
F0.009000000000000008
sg91
F0.0
sg92
F0.0029999999999998916
sg93
F-0.013000000000000012
sg94
F0.02200000000000002
sg95
F0.02300000000000002
sg96
F0.02200000000000002
sg97
F0.0
sg98
F0.0
sg99
F0.0
sg100
F0.0
ss(S'DA06'
p196
S'AVBR'
p197
S'AVBL'
p198
tp199
(dp200
g6
F0.1489999999999999
sg7
F0.03699999999999998
sg8
F-0.008000000000000007
sg9
F0.007000000000000006
sg10
F0.0
sg11
F0.0
sg12
F-0.02200000000000002
sg13
F0.0
sg14
F0.0
sg15
F0.0
sg16
F0.0
sg17
F0.0
sg18
F0.0
sg19
F0.0
sg20
F-0.015000000000000013
sg21
F0.052999999999999936
sg22
F0.0
sg23
F0.0
sg24
F0.015999999999999903
sg25
F-0.016000000000000014
sg26
F0.031000000000000028
sg27
F0.0
sg28
F-0.0050000000000000044
sg29
F0.0
sg30
F0.0
sg31
F0.07099999999999995
sg32
F0.0
sg33
F0.0
sg34
F0.0
sg35
F0.0
sg36
F0.0
sg37
F0.0
sg38
F0.0
sg39
F0.04200000000000004
sg40
F0.18499999999999994
sg41
F-0.0010000000000000009
sg42
F0.0
sg43
F0.0
sg44
F0.0
sg45
F0.0
sg46
F0.0
sg47
F0.0
sg48
F0.0
sg49
F0.0
sg50
F0.0
sg51
F0.0
sg52
F0.0
sg53
F0.0
sg54
F0.0
sg55
F0.0
sg56
F0.0
sg57
F0.0
sg58
F0.0
sg59
F0.0
sg60
F0.0
sg61
F0.0
sg62
F0.0
sg63
F0.0
sg64
F0.0
sg65
F0.0
sg66
F0.0
sg67
F0.0
sg68
F0.06800000000000006
sg69
F0.122
sg70
F0.061999999999999944
sg71
F0.040000000000000036
sg72
F0.09599999999999997
sg73
F0.0
sg74
F0.0
sg75
F0.0
sg76
F0.0
sg77
F0.0
sg78
F0.0
sg79
F0.0
sg80
F0.0
sg81
F0.0
sg82
F0.0
sg83
F0.0
sg84
F0.0
sg85
F0.0
sg86
F0.0
sg87
F0.0
sg88
F0.0
sg89
F0.06000000000000005
sg90
F0.0
sg91
F0.0
sg92
F-0.025000000000000022
sg93
F0.007000000000000006
sg94
F0.028000000000000025
sg95
F0.026000000000000023
sg96
F-0.007999999999999896
sg97
F0.0
sg98
F0.0
sg99
F0.0
sg100
F0.0
ss(S'DB02'
p201
S'DD01'
p202
S'DD02'
p203
tp204
(dp205
g6
F-0.019000000000000017
sg7
F0.05499999999999999
sg8
F0.009000000000000008
sg9
F-0.02399999999999991
sg10
F0.0
sg11
F0.0
sg12
F-0.03899999999999998
sg13
F0.0
sg14
F0.0
sg15
F0.0
sg16
F0.0
sg17
F0.0
sg18
F0.242
sg19
F0.0
sg20
F-0.026000000000000023
sg21
F0.02199999999999991
sg22
F0.0
sg23
F0.0
sg24
F0.0119999999999999
sg25
F-0.02300000000000002
sg26
F-0.0040000000000000036
sg27
F0.0
sg28
F0.006999999999999895
sg29
F0.0
sg30
F0.0
sg31
F0.010999999999999899
sg32
F0.0
sg33
F0.0
sg34
F0.0
sg35
F0.0
sg36
F0.0
sg37
F0.0
sg38
F0.0
sg39
F-0.019000000000000017
sg40
F0.007999999999999896
sg41
F0.02200000000000002
sg42
F0.0
sg43
F0.0
sg44
F0.0
sg45
F0.0
sg46
F0.0
sg47
F0.0
sg48
F0.0
sg49
F0.0
sg50
F0.0
sg51
F0.0
sg52
F0.0
sg53
F0.0
sg54
F0.0
sg55
F0.0
sg56
F0.0
sg57
F0.0
sg58
F0.0
sg59
F0.0
sg60
F0.0
sg61
F0.0
sg62
F0.0
sg63
F0.0
sg64
F0.0
sg65
F0.0
sg66
F0.0
sg67
F0.0
sg68
F0.0030000000000000027
sg69
F-0.009000000000000008
sg70
F-0.02400000000000002
sg71
F0.0
sg72
F0.0040000000000000036
sg73
F0.0
sg74
F0.0
sg75
F0.0
sg76
F0.0
sg77
F0.0
sg78
F0.346
sg79
F0.0
sg80
F0.22099999999999997
sg81
F0.0
sg82
F0.0
sg83
F0.0
sg84
F0.0
sg85
F0.0
sg86
F0.0
sg87
F0.0
sg88
F0.0
sg89
F0.0
sg90
F0.0
sg91
F0.0
sg92
F0.006999999999999895
sg93
F-0.008000000000000007
sg94
F-0.0030000000000000027
sg95
F0.04300000000000004
sg96
F-0.0050000000000000044
sg97
F0.19099999999999995
sg98
F0.0
sg99
F0.0
sg100
F0.0
ss(S'DB04'
p206
S'VB10'
p207
S'AVBR'
p208
tp209
(dp210
g6
F0.09899999999999998
sg7
F0.055999999999999994
sg8
F0.009000000000000008
sg9
F-0.026999999999999913
sg10
F0.0
sg11
F0.0
sg12
F-0.009000000000000008
sg13
F0.0
sg14
F0.0
sg15
F0.0
sg16
F0.0
sg17
F0.0
sg18
F0.0
sg19
F0.0
sg20
F-0.016000000000000014
sg21
F0.04799999999999993
sg22
F0.0
sg23
F0.0
sg24
F0.014999999999999902
sg25
F0.04699999999999993
sg26
F0.028000000000000025
sg27
F0.008000000000000007
sg28
F0.015999999999999903
sg29
F0.0
sg30
F0.0
sg31
F0.06399999999999995
sg32
F0.0
sg33
F0.0
sg34
F0.0
sg35
F0.01100000000000001
sg36
F0.0
sg37
F0.040000000000000036
sg38
F0.008000000000000007
sg39
F0.013000000000000012
sg40
F0.1329999999999999
sg41
F0.0040000000000000036
sg42
F0.0
sg43
F0.0
sg44
F0.0
sg45
F0.008000000000000007
sg46
F0.0
sg47
F0.0
sg48
F0.0
sg49
F0.0
sg50
F0.029000000000000026
sg51
F0.006000000000000005
sg52
F0.0
sg53
F0.0
sg54
F0.0
sg55
F0.0
sg56
F0.0
sg57
F0.0
sg58
F0.0
sg59
F0.0
sg60
F0.0
sg61
F0.0
sg62
F0.0
sg63
F0.0
sg64
F0.0
sg65
F0.0
sg66
F0.0
sg67
F0.0
sg68
F0.05400000000000005
sg69
F0.1100000000000001
sg70
F0.040999999999999925
sg71
F0.027000000000000024
sg72
F0.06399999999999995
sg73
F0.0
sg74
F0.0
sg75
F0.0
sg76
F0.0
sg77
F0.0
sg78
F0.0
sg79
F0.0
sg80
F0.0
sg81
F0.0
sg82
F0.0
sg83
F0.0
sg84
F0.0
sg85
F0.0
sg86
F0.0
sg87
F0.0
sg88
F0.0
sg89
F0.026000000000000023
sg90
F0.018000000000000016
sg91
F0.0
sg92
F-0.0040000000000000036
sg93
F-0.007000000000000006
sg94
F0.040000000000000036
sg95
F0.04800000000000004
sg96
F-0.007000000000000006
sg97
F0.0
sg98
F0.0
sg99
F0.0
sg100
F0.0
ss(S'VB09'
p211
S'DB04'
p212
S'AVBR'
p213
tp214
(dp215
g6
F0.07799999999999996
sg7
F0.03799999999999998
sg8
F0.008000000000000007
sg9
F-0.009999999999999898
sg10
F0.0
sg11
F0.0
sg12
F-0.032999999999999974
sg13
F0.0
sg14
F0.0
sg15
F0.0
sg16
F0.0
sg17
F0.0
sg18
F0.0
sg19
F0.0
sg20
F-0.04399999999999993
sg21
F0.03599999999999992
sg22
F0.0
sg23
F0.0
sg24
F0.03299999999999992
sg25
F-0.0010000000000000009
sg26
F0.028000000000000025
sg27
F0.01100000000000001
sg28
F-0.009000000000000008
sg29
F0.0
sg30
F0.0
sg31
F0.07599999999999996
sg32
F0.0
sg33
F0.0
sg34
F0.0
sg35
F0.020000000000000018
sg36
F0.0
sg37
F0.025000000000000022
sg38
F0.008000000000000007
sg39
F0.04500000000000004
sg40
F0.1379999999999999
sg41
F0.01100000000000001
sg42
F0.0
sg43
F0.0
sg44
F0.0
sg45
F0.029000000000000026
sg46
F0.0
sg47
F0.0
sg48
F0.0
sg49
F0.0
sg50
F0.014000000000000012
sg51
F0.016000000000000014
sg52
F0.0
sg53
F0.0
sg54
F0.0
sg55
F0.0
sg56
F0.0
sg57
F0.0
sg58
F0.0
sg59
F0.0
sg60
F0.0
sg61
F0.0
sg62
F0.0
sg63
F0.0
sg64
F0.0
sg65
F0.0
sg66
F0.0
sg67
F0.0
sg68
F0.026000000000000023
sg69
F0.131
sg70
F0.07499999999999996
sg71
F0.019000000000000017
sg72
F0.11099999999999999
sg73
F0.0
sg74
F0.0
sg75
F0.0
sg76
F0.0
sg77
F0.0
sg78
F0.0
sg79
F0.0
sg80
F0.0
sg81
F0.0
sg82
F0.0
sg83
F0.0
sg84
F0.0
sg85
F0.0
sg86
F0.0
sg87
F0.0
sg88
F0.0
sg89
F0.02300000000000002
sg90
F0.017000000000000015
sg91
F0.0
sg92
F-0.008000000000000007
sg93
F-0.0020000000000000018
sg94
F0.028000000000000025
sg95
F0.05600000000000005
sg96
F0.007000000000000006
sg97
F0.0
sg98
F0.0
sg99
F0.0
sg100
F0.0
ss(S'AS03'
p216
S'DD01'
p217
S'DD02'
p218
tp219
(dp220
g6
F-0.0050000000000000044
sg7
F0.025000000000000022
sg8
F0.0
sg9
F0.008000000000000007
sg10
F0.0
sg11
F0.0
sg12
F0.0050000000000000044
sg13
F0.0
sg14
F0.0
sg15
F0.0
sg16
F0.0
sg17
F0.0
sg18
F0.22099999999999997
sg19
F0.0
sg20
F0.01200000000000001
sg21
F0.015999999999999903
sg22
F0.0
sg23
F0.0
sg24
F0.009999999999999898
sg25
F-0.017000000000000015
sg26
F-0.007999999999999896
sg27
F0.0
sg28
F0.010999999999999899
sg29
F0.0
sg30
F0.0
sg31
F0.007999999999999896
sg32
F0.0
sg33
F0.0
sg34
F0.0
sg35
F0.0
sg36
F0.0
sg37
F0.0
sg38
F0.0
sg39
F-0.015000000000000013
sg40
F-0.01100000000000001
sg41
F-0.03299999999999992
sg42
F0.0
sg43
F0.0
sg44
F0.0
sg45
F0.0
sg46
F0.0
sg47
F0.0
sg48
F0.0
sg49
F0.0
sg50
F0.0
sg51
F0.0
sg52
F0.0
sg53
F0.0
sg54
F0.0
sg55
F0.0
sg56
F0.0
sg57
F0.0
sg58
F0.0
sg59
F0.0
sg60
F0.0
sg61
F0.0
sg62
F0.0
sg63
F0.0
sg64
F0.0
sg65
F0.0
sg66
F0.0
sg67
F0.0
sg68
F0.010000000000000009
sg69
F-0.0050000000000000044
sg70
F-0.007000000000000006
sg71
F0.0
sg72
F0.0
sg73
F0.0
sg74
F0.0
sg75
F0.0
sg76
F0.0
sg77
F0.0
sg78
F0.33499999999999996
sg79
F0.0
sg80
F0.243
sg81
F0.0
sg82
F0.0
sg83
F0.0
sg84
F0.0
sg85
F0.0
sg86
F0.0
sg87
F0.0
sg88
F0.0
sg89
F0.0
sg90
F0.0
sg91
F0.0
sg92
F-0.0020000000000000018
sg93
F0.006000000000000005
sg94
F-0.015999999999999903
sg95
F-0.0010000000000000009
sg96
F0.009000000000000008
sg97
F0.20099999999999996
sg98
F0.0
sg99
F0.0
sg100
F0.0
ss(S'VB10'
p221
S'DA06'
p222
S'AVBR'
p223
tp224
(dp225
g6
F0.08099999999999996
sg7
F0.05199999999999999
sg8
F0.009000000000000008
sg9
F0.027000000000000024
sg10
F0.0
sg11
F0.0
sg12
F-0.03699999999999998
sg13
F0.0
sg14
F0.0
sg15
F0.0
sg16
F0.0
sg17
F0.0
sg18
F0.0
sg19
F0.0
sg20
F-0.014000000000000012
sg21
F0.03499999999999992
sg22
F0.0
sg23
F0.0
sg24
F0.03599999999999992
sg25
F0.004999999999999893
sg26
F0.028000000000000025
sg27
F0.007000000000000006
sg28
F0.004999999999999893
sg29
F0.0
sg30
F0.0
sg31
F0.09199999999999997
sg32
F0.0
sg33
F0.0
sg34
F0.0
sg35
F0.008000000000000007
sg36
F0.0
sg37
F0.04400000000000004
sg38
F0.0040000000000000036
sg39
F0.02400000000000002
sg40
F0.1349999999999999
sg41
F-0.006999999999999895
sg42
F0.0
sg43
F0.0
sg44
F0.0
sg45
F0.007000000000000006
sg46
F0.0
sg47
F0.0
sg48
F0.0
sg49
F0.0
sg50
F0.052000000000000046
sg51
F0.0040000000000000036
sg52
F0.0
sg53
F0.0
sg54
F0.0
sg55
F0.0
sg56
F0.0
sg57
F0.0
sg58
F0.0
sg59
F0.0
sg60
F0.0
sg61
F0.0
sg62
F0.0
sg63
F0.0
sg64
F0.0
sg65
F0.0
sg66
F0.0
sg67
F0.0
sg68
F0.028000000000000025
sg69
F0.124
sg70
F0.04399999999999993
sg71
F0.028000000000000025
sg72
F0.07599999999999996
sg73
F0.0
sg74
F0.0
sg75
F0.0
sg76
F0.0
sg77
F0.0
sg78
F0.0
sg79
F0.0
sg80
F0.0
sg81
F0.0
sg82
F0.0
sg83
F0.0
sg84
F0.0
sg85
F0.0
sg86
F0.0
sg87
F0.0
sg88
F0.0
sg89
F0.031000000000000028
sg90
F0.007000000000000006
sg91
F0.0
sg92
F-0.017000000000000015
sg93
F0.031000000000000028
sg94
F0.04800000000000004
sg95
F0.018000000000000016
sg96
F-0.014999999999999902
sg97
F0.0
sg98
F0.0
sg99
F0.0
sg100
F0.0
ss(S'DB02'
p226
S'AS03'
p227
S'DA03'
p228
tp229
(dp230
g6
F-0.010000000000000009
sg7
F0.03999999999999998
sg8
F0.0010000000000000009
sg9
F-0.02499999999999991
sg10
F0.0
sg11
F0.0
sg12
F-0.025000000000000022
sg13
F0.0
sg14
F0.0
sg15
F0.0
sg16
F0.0
sg17
F0.0
sg18
F0.34199999999999997
sg19
F0.0
sg20
F-0.01200000000000001
sg21
F0.008000000000000007
sg22
F0.0
sg23
F0.0
sg24
F0.0039999999999998925
sg25
F-0.01100000000000001
sg26
F0.016000000000000014
sg27
F0.0
sg28
F-0.03200000000000003
sg29
F0.0
sg30
F0.0
sg31
F0.006999999999999895
sg32
F0.0
sg33
F0.0
sg34
F0.0
sg35
F0.0
sg36
F0.0
sg37
F0.0
sg38
F0.0
sg39
F-0.008000000000000007
sg40
F0.006999999999999895
sg41
F0.01200000000000001
sg42
F0.0
sg43
F0.0
sg44
F0.0
sg45
F0.0
sg46
F0.0
sg47
F0.0
sg48
F0.0
sg49
F0.0
sg50
F0.0
sg51
F0.0
sg52
F0.0
sg53
F0.0
sg54
F0.0
sg55
F0.0
sg56
F0.0
sg57
F0.0
sg58
F0.0
sg59
F0.0
sg60
F0.0
sg61
F0.0
sg62
F0.0
sg63
F0.0
sg64
F0.0
sg65
F0.0
sg66
F0.0
sg67
F0.0
sg68
F-0.0010000000000000009
sg69
F0.006000000000000005
sg70
F-0.02100000000000002
sg71
F0.0
sg72
F0.0010000000000000009
sg73
F0.0
sg74
F0.0
sg75
F0.0
sg76
F0.0
sg77
F0.0
sg78
F0.19099999999999995
sg79
F0.0
sg80
F0.137
sg81
F0.0
sg82
F0.0
sg83
F0.0
sg84
F0.0
sg85
F0.0
sg86
F0.0
sg87
F0.0
sg88
F0.0
sg89
F0.0
sg90
F0.0
sg91
F0.0
sg92
F0.004999999999999893
sg93
F0.017000000000000015
sg94
F0.0030000000000000027
sg95
F0.05700000000000005
sg96
F-0.038999999999999924
sg97
F0.32999999999999996
sg98
F0.0
sg99
F0.0
sg100
F0.0
ss(S'DB04'
p231
S'VD09'
p232
S'AVBR'
p233
tp234
(dp235
g6
F0.08299999999999996
sg7
F0.04899999999999999
sg8
F-0.008000000000000007
sg9
F-0.0050000000000000044
sg10
F0.0
sg11
F0.0
sg12
F-0.015000000000000013
sg13
F0.0
sg14
F0.0
sg15
F0.0
sg16
F0.0
sg17
F0.0
sg18
F0.0
sg19
F0.0
sg20
F-0.009000000000000008
sg21
F0.04799999999999993
sg22
F0.0
sg23
F0.0
sg24
F0.014999999999999902
sg25
F0.005999999999999894
sg26
F0.015000000000000013
sg27
F0.0030000000000000027
sg28
F-0.0030000000000000027
sg29
F0.0
sg30
F0.0
sg31
F0.05399999999999994
sg32
F0.0
sg33
F0.0
sg34
F0.0
sg35
F0.029000000000000026
sg36
F0.0
sg37
F0.01100000000000001
sg38
F0.026000000000000023
sg39
F0.026000000000000023
sg40
F0.15399999999999991
sg41
F0.0030000000000000027
sg42
F0.0
sg43
F0.0
sg44
F0.0
sg45
F0.02100000000000002
sg46
F0.0
sg47
F0.0
sg48
F0.0
sg49
F0.0
sg50
F0.009000000000000008
sg51
F0.031000000000000028
sg52
F0.0
sg53
F0.0
sg54
F0.0
sg55
F0.0
sg56
F0.0
sg57
F0.0
sg58
F0.0
sg59
F0.0
sg60
F0.0
sg61
F0.0
sg62
F0.0
sg63
F0.0
sg64
F0.0
sg65
F0.0
sg66
F0.0
sg67
F0.0
sg68
F0.050000000000000044
sg69
F0.1070000000000001
sg70
F0.06799999999999995
sg71
F0.025000000000000022
sg72
F0.08399999999999996
sg73
F0.0
sg74
F0.0
sg75
F0.0
sg76
F0.0
sg77
F0.0
sg78
F0.0
sg79
F0.0
sg80
F0.0
sg81
F0.0
sg82
F0.0
sg83
F0.0
sg84
F0.0
sg85
F0.0
sg86
F0.0
sg87
F0.0
sg88
F0.0
sg89
F0.03400000000000003
sg90
F0.007000000000000006
sg91
F0.0
sg92
F0.006999999999999895
sg93
F0.019000000000000017
sg94
F0.02300000000000002
sg95
F0.02100000000000002
sg96
F0.01200000000000001
sg97
F0.0
sg98
F0.0
sg99
F0.0
sg100
F0.0
ss(S'DA06'
p236
S'DVB'
p237
S'AVBR'
p238
tp239
(dp240
g6
F0.08799999999999997
sg7
F0.055999999999999994
sg8
F-0.008000000000000007
sg9
F-0.026999999999999913
sg10
F0.0
sg11
F0.0
sg12
F-0.0030000000000000027
sg13
F0.0
sg14
F0.0
sg15
F0.0
sg16
F0.0
sg17
F0.0
sg18
F0.0
sg19
F0.0
sg20
F-0.0040000000000000036
sg21
F0.07499999999999996
sg22
F0.0
sg23
F0.0
sg24
F0.0129999999999999
sg25
F-0.008000000000000007
sg26
F0.014000000000000012
sg27
F0.0
sg28
F-0.018000000000000016
sg29
F0.0
sg30
F0.0
sg31
F0.09899999999999998
sg32
F0.0
sg33
F0.0
sg34
F0.0
sg35
F0.0
sg36
F0.0
sg37
F0.0
sg38
F0.0
sg39
F0.049000000000000044
sg40
F0.17499999999999993
sg41
F-0.004999999999999893
sg42
F0.0
sg43
F0.0
sg44
F0.0
sg45
F0.0
sg46
F0.0
sg47
F0.0
sg48
F0.0
sg49
F0.0
sg50
F0.0
sg51
F0.0
sg52
F0.0
sg53
F0.0
sg54
F0.0
sg55
F0.0
sg56
F0.0
sg57
F0.0
sg58
F0.0
sg59
F0.0
sg60
F0.0
sg61
F0.0
sg62
F0.0
sg63
F0.0
sg64
F0.0
sg65
F0.0
sg66
F0.0
sg67
F0.0
sg68
F0.07100000000000006
sg69
F0.14400000000000002
sg70
F0.05799999999999994
sg71
F0.02100000000000002
sg72
F0.10399999999999998
sg73
F0.0
sg74
F0.0
sg75
F0.0
sg76
F0.0
sg77
F0.0
sg78
F0.0
sg79
F0.0
sg80
F0.0
sg81
F0.0
sg82
F0.0
sg83
F0.0
sg84
F0.0
sg85
F0.0
sg86
F0.0
sg87
F0.0
sg88
F0.0
sg89
F0.029000000000000026
sg90
F0.0
sg91
F0.0
sg92
F-0.02200000000000002
sg93
F0.029000000000000026
sg94
F0.050000000000000044
sg95
F0.028000000000000025
sg96
F-0.007999999999999896
sg97
F0.0
sg98
F0.0
sg99
F0.0
sg100
F0.0
ss(S'VD11'
p241
S'DA06'
p242
S'AVBR'
p243
tp244
(dp245
g6
F0.10799999999999998
sg7
F0.04099999999999998
sg8
F0.0010000000000000009
sg9
F-0.017999999999999905
sg10
F0.0
sg11
F0.0
sg12
F0.0030000000000000027
sg13
F0.0
sg14
F0.0
sg15
F0.0
sg16
F0.0
sg17
F0.0
sg18
F0.0
sg19
F0.0
sg20
F0.0
sg21
F0.028999999999999915
sg22
F0.0
sg23
F0.0
sg24
F0.0030000000000000027
sg25
F0.03799999999999992
sg26
F0.02400000000000002
sg27
F0.0010000000000000009
sg28
F0.010999999999999899
sg29
F0.0
sg30
F0.0
sg31
F0.06499999999999995
sg32
F0.0
sg33
F0.0
sg34
F0.0
sg35
F0.0050000000000000044
sg36
F0.0
sg37
F0.030000000000000027
sg38
F0.007000000000000006
sg39
F0.02300000000000002
sg40
F0.1329999999999999
sg41
F0.031000000000000028
sg42
F0.0
sg43
F0.0
sg44
F0.0
sg45
F0.0050000000000000044
sg46
F0.0
sg47
F0.0
sg48
F0.0
sg49
F0.0
sg50
F0.031000000000000028
sg51
F0.008000000000000007
sg52
F0.0
sg53
F0.0
sg54
F0.0
sg55
F0.0
sg56
F0.0
sg57
F0.0
sg58
F0.0
sg59
F0.0
sg60
F0.0
sg61
F0.0
sg62
F0.0
sg63
F0.0
sg64
F0.0
sg65
F0.0
sg66
F0.0
sg67
F0.0
sg68
F0.041000000000000036
sg69
F0.134
sg70
F0.04799999999999993
sg71
F0.019000000000000017
sg72
F0.09499999999999997
sg73
F0.0
sg74
F0.0
sg75
F0.0
sg76
F0.0
sg77
F0.0
sg78
F0.0
sg79
F0.0
sg80
F0.0
sg81
F0.0
sg82
F0.0
sg83
F0.0
sg84
F0.0
sg85
F0.0
sg86
F0.0
sg87
F0.0
sg88
F0.0
sg89
F0.020000000000000018
sg90
F0.016000000000000014
sg91
F0.0
sg92
F-0.0050000000000000044
sg93
F0.02100000000000002
sg94
F0.028000000000000025
sg95
F0.03300000000000003
sg96
F-0.028999999999999915
sg97
F0.0
sg98
F0.0
sg99
F0.0
sg100
F0.0
ss(S'DA02'
p246
S'DD01'
p247
S'DD02'
p248
tp249
(dp250
g6
F-0.01200000000000001
sg7
F0.03799999999999998
sg8
F0.016999999999999904
sg9
F-0.02499999999999991
sg10
F0.0
sg11
F0.0
sg12
F-0.0010000000000000009
sg13
F0.0
sg14
F0.0
sg15
F0.0
sg16
F0.0
sg17
F0.0
sg18
F0.20999999999999996
sg19
F0.0
sg20
F-0.007000000000000006
sg21
F0.016999999999999904
sg22
F0.0
sg23
F0.0
sg24
F0.014999999999999902
sg25
F-0.029000000000000026
sg26
F0.028000000000000025
sg27
F0.0
sg28
F-0.03200000000000003
sg29
F0.0
sg30
F0.0
sg31
F0.010999999999999899
sg32
F0.0
sg33
F0.0
sg34
F0.0
sg35
F0.0
sg36
F0.0
sg37
F0.0
sg38
F0.0
sg39
F-0.02100000000000002
sg40
F0.006999999999999895
sg41
F-0.038999999999999924
sg42
F0.0
sg43
F0.0
sg44
F0.0
sg45
F0.0
sg46
F0.0
sg47
F0.0
sg48
F0.0
sg49
F0.0
sg50
F0.0
sg51
F0.0
sg52
F0.0
sg53
F0.0
sg54
F0.0
sg55
F0.0
sg56
F0.0
sg57
F0.0
sg58
F0.0
sg59
F0.0
sg60
F0.0
sg61
F0.0
sg62
F0.0
sg63
F0.0
sg64
F0.0
sg65
F0.0
sg66
F0.0
sg67
F0.0
sg68
F0.015000000000000013
sg69
F0.0050000000000000044
sg70
F-0.008000000000000007
sg71
F0.0
sg72
F-0.0030000000000000027
sg73
F0.0
sg74
F0.0
sg75
F0.0
sg76
F0.0
sg77
F0.0
sg78
F0.33999999999999997
sg79
F0.0
sg80
F0.21399999999999997
sg81
F0.0
sg82
F0.0
sg83
F0.0
sg84
F0.0
sg85
F0.0
sg86
F0.0
sg87
F0.0
sg88
F0.0
sg89
F0.0
sg90
F0.0
sg91
F0.0
sg92
F-0.006000000000000005
sg93
F0.007000000000000006
sg94
F-0.006000000000000005
sg95
F0.05800000000000005
sg96
F-0.028999999999999915
sg97
F0.236
sg98
F0.0
sg99
F0.0
sg100
F0.0
ss(S'VB09'
p251
S'DA06'
p252
S'AVBR'
p253
tp254
(dp255
g6
F0.09899999999999998
sg7
F0.02100000000000002
sg8
F0.03699999999999992
sg9
F-0.0020000000000000018
sg10
F0.0
sg11
F0.0
sg12
F0.01200000000000001
sg13
F0.0
sg14
F0.0
sg15
F0.0
sg16
F0.0
sg17
F0.0
sg18
F0.0
sg19
F0.0
sg20
F-0.015000000000000013
sg21
F0.03499999999999992
sg22
F0.0
sg23
F0.0
sg24
F0.013999999999999901
sg25
F0.009999999999999898
sg26
F0.01100000000000001
sg27
F0.0050000000000000044
sg28
F-0.018000000000000016
sg29
F0.0
sg30
F0.0
sg31
F0.07899999999999996
sg32
F0.0
sg33
F0.0
sg34
F0.0
sg35
F0.026000000000000023
sg36
F0.0
sg37
F0.013000000000000012
sg38
F0.01100000000000001
sg39
F0.03400000000000003
sg40
F0.1359999999999999
sg41
F0.0
sg42
F0.0
sg43
F0.0
sg44
F0.0
sg45
F0.020000000000000018
sg46
F0.0
sg47
F0.0
sg48
F0.0
sg49
F0.0
sg50
F0.007000000000000006
sg51
F0.018000000000000016
sg52
F0.0
sg53
F0.0
sg54
F0.0
sg55
F0.0
sg56
F0.0
sg57
F0.0
sg58
F0.0
sg59
F0.0
sg60
F0.0
sg61
F0.0
sg62
F0.0
sg63
F0.0
sg64
F0.0
sg65
F0.0
sg66
F0.0
sg67
F0.0
sg68
F0.052000000000000046
sg69
F0.124
sg70
F0.04599999999999993
sg71
F0.02400000000000002
sg72
F0.09499999999999997
sg73
F0.0
sg74
F0.0
sg75
F0.0
sg76
F0.0
sg77
F0.0
sg78
F0.0
sg79
F0.0
sg80
F0.0
sg81
F0.0
sg82
F0.0
sg83
F0.0
sg84
F0.0
sg85
F0.0
sg86
F0.0
sg87
F0.0
sg88
F0.0
sg89
F0.02300000000000002
sg90
F0.010000000000000009
sg91
F0.0
sg92
F-0.02100000000000002
sg93
F0.03600000000000003
sg94
F0.052000000000000046
sg95
F0.020000000000000018
sg96
F-0.013999999999999901
sg97
F0.0
sg98
F0.0
sg99
F0.0
sg100
F0.0
ss(S'DB04'
p256
S'DVB'
p257
S'AVBR'
p258
tp259
(dp260
g6
F0.10399999999999998
sg7
F0.059
sg8
F0.018999999999999906
sg9
F0.014000000000000012
sg10
F0.0
sg11
F0.0
sg12
F0.0010000000000000009
sg13
F0.0
sg14
F0.0
sg15
F0.0
sg16
F0.0
sg17
F0.0
sg18
F0.0
sg19
F0.0
sg20
F-0.020000000000000018
sg21
F0.06399999999999995
sg22
F0.0
sg23
F0.0
sg24
F-0.026000000000000023
sg25
F-0.020000000000000018
sg26
F0.028000000000000025
sg27
F0.0
sg28
F-0.006000000000000005
sg29
F0.0
sg30
F0.0
sg31
F0.08999999999999997
sg32
F0.0
sg33
F0.0
sg34
F0.0
sg35
F0.0
sg36
F0.0
sg37
F0.0
sg38
F0.0
sg39
F0.05799999999999994
sg40
F0.15499999999999992
sg41
F-0.006999999999999895
sg42
F0.0
sg43
F0.0
sg44
F0.0
sg45
F0.0
sg46
F0.0
sg47
F0.0
sg48
F0.0
sg49
F0.0
sg50
F0.0
sg51
F0.0
sg52
F0.0
sg53
F0.0
sg54
F0.0
sg55
F0.0
sg56
F0.0
sg57
F0.0
sg58
F0.0
sg59
F0.0
sg60
F0.0
sg61
F0.0
sg62
F0.0
sg63
F0.0
sg64
F0.0
sg65
F0.0
sg66
F0.0
sg67
F0.0
sg68
F0.04500000000000004
sg69
F0.134
sg70
F0.08599999999999997
sg71
F0.02100000000000002
sg72
F0.09699999999999998
sg73
F0.0
sg74
F0.0
sg75
F0.0
sg76
F0.0
sg77
F0.0
sg78
F0.0
sg79
F0.0
sg80
F0.0
sg81
F0.0
sg82
F0.0
sg83
F0.0
sg84
F0.0
sg85
F0.0
sg86
F0.0
sg87
F0.0
sg88
F0.0
sg89
F0.019000000000000017
sg90
F0.0
sg91
F0.0
sg92
F-0.01100000000000001
sg93
F0.016000000000000014
sg94
F0.041000000000000036
sg95
F0.05800000000000005
sg96
F-0.018999999999999906
sg97
F0.0
sg98
F0.0
sg99
F0.0
sg100
F0.0
ss(S'VB08'
p261
S'DA06'
p262
S'AVBR'
p263
tp264
(dp265
g6
F0.09499999999999997
sg7
F0.027000000000000024
sg8
F0.02399999999999991
sg9
F-0.008999999999999897
sg10
F0.0
sg11
F0.0
sg12
F0.0040000000000000036
sg13
F0.0
sg14
F0.0
sg15
F0.0
sg16
F0.0
sg17
F0.0
sg18
F0.0
sg19
F0.0
sg20
F-0.02300000000000002
sg21
F0.03799999999999992
sg22
F0.0
sg23
F0.0
sg24
F-0.017000000000000015
sg25
F0.0119999999999999
sg26
F0.041000000000000036
sg27
F0.007000000000000006
sg28
F0.006999999999999895
sg29
F0.0
sg30
F0.0
sg31
F0.05899999999999994
sg32
F0.0
sg33
F0.0
sg34
F0.0
sg35
F0.017000000000000015
sg36
F0.0
sg37
F0.016000000000000014
sg38
F0.01200000000000001
sg39
F0.016000000000000014
sg40
F0.16099999999999992
sg41
F0.01200000000000001
sg42
F0.0
sg43
F0.0
sg44
F0.0
sg45
F0.020000000000000018
sg46
F0.0
sg47
F0.0
sg48
F0.0
sg49
F0.0
sg50
F0.009000000000000008
sg51
F0.029000000000000026
sg52
F0.0
sg53
F0.0
sg54
F0.0
sg55
F0.0
sg56
F0.0
sg57
F0.0
sg58
F0.0
sg59
F0.0
sg60
F0.0
sg61
F0.0
sg62
F0.0
sg63
F0.0
sg64
F0.0
sg65
F0.0
sg66
F0.0
sg67
F0.0
sg68
F0.040000000000000036
sg69
F0.15200000000000002
sg70
F0.04899999999999993
sg71
F0.02300000000000002
sg72
F0.07499999999999996
sg73
F0.0
sg74
F0.0
sg75
F0.0
sg76
F0.0
sg77
F0.0
sg78
F0.0
sg79
F0.0
sg80
F0.0
sg81
F0.0
sg82
F0.0
sg83
F0.0
sg84
F0.0
sg85
F0.0
sg86
F0.0
sg87
F0.0
sg88
F0.0
sg89
F0.02300000000000002
sg90
F0.010000000000000009
sg91
F0.0
sg92
F-0.0040000000000000036
sg93
F-0.014000000000000012
sg94
F0.04500000000000004
sg95
F0.029000000000000026
sg96
F0.015000000000000013
sg97
F0.0
sg98
F0.0
sg99
F0.0
sg100
F0.0
ss(S'DB02'
p266
S'DA03'
p267
S'DA02'
p268
tp269
(dp270
g6
F-0.016000000000000014
sg7
F0.064
sg8
F-0.010000000000000009
sg9
F0.0020000000000000018
sg10
F0.0
sg11
F0.0
sg12
F-0.018000000000000016
sg13
F0.0
sg14
F0.0
sg15
F0.0
sg16
F0.0
sg17
F0.0
sg18
F0.351
sg19
F0.0
sg20
F-0.025000000000000022
sg21
F-0.006000000000000005
sg22
F0.0
sg23
F0.0
sg24
F-0.0010000000000000009
sg25
F-0.018000000000000016
sg26
F0.03500000000000003
sg27
F0.0
sg28
F-0.01200000000000001
sg29
F0.0
sg30
F0.0
sg31
F0.0039999999999998925
sg32
F0.0
sg33
F0.0
sg34
F0.0
sg35
F0.0
sg36
F0.0
sg37
F0.0
sg38
F0.0
sg39
F-0.018000000000000016
sg40
F0.009999999999999898
sg41
F-0.0039999999999998925
sg42
F0.0
sg43
F0.0
sg44
F0.0
sg45
F0.0
sg46
F0.0
sg47
F0.0
sg48
F0.0
sg49
F0.0
sg50
F0.0
sg51
F0.0
sg52
F0.0
sg53
F0.0
sg54
F0.0
sg55
F0.0
sg56
F0.0
sg57
F0.0
sg58
F0.0
sg59
F0.0
sg60
F0.0
sg61
F0.0
sg62
F0.0
sg63
F0.0
sg64
F0.0
sg65
F0.0
sg66
F0.0
sg67
F0.0
sg68
F0.01200000000000001
sg69
F-0.0050000000000000044
sg70
F-0.006000000000000005
sg71
F0.0
sg72
F-0.0010000000000000009
sg73
F0.0
sg74
F0.0
sg75
F0.0
sg76
F0.0
sg77
F0.0
sg78
F0.20699999999999996
sg79
F0.0
sg80
F0.133
sg81
F0.0
sg82
F0.0
sg83
F0.0
sg84
F0.0
sg85
F0.0
sg86
F0.0
sg87
F0.0
sg88
F0.0
sg89
F0.0
sg90
F0.0
sg91
F0.0
sg92
F0.02199999999999991
sg93
F-0.016000000000000014
sg94
F-0.0040000000000000036
sg95
F0.03200000000000003
sg96
F-0.020999999999999908
sg97
F0.30900000000000005
sg98
F0.0
sg99
F0.0
sg100
F0.0
ss(S'VA03'
p271
S'VD03'
p272
S'PVNL'
p273
tp274
(dp275
g6
F-0.01100000000000001
sg7
F0.03200000000000003
sg8
F0.0
sg9
F-0.008999999999999897
sg10
F0.0
sg11
F0.0
sg12
F0.007000000000000006
sg13
F0.0
sg14
F0.0
sg15
F0.0
sg16
F0.0
sg17
F0.0
sg18
F0.0
sg19
F0.0
sg20
F0.007000000000000006
sg21
F0.014999999999999902
sg22
F0.0
sg23
F0.0
sg24
F-0.02200000000000002
sg25
F-0.0020000000000000018
sg26
F0.03600000000000003
sg27
F0.0
sg28
F-0.009000000000000008
sg29
F0.0
sg30
F0.0
sg31
F-0.009000000000000008
sg32
F0.0
sg33
F0.0
sg34
F0.0
sg35
F0.0
sg36
F0.0
sg37
F0.0
sg38
F0.0
sg39
F-0.018000000000000016
sg40
F-0.0020000000000000018
sg41
F-0.02299999999999991
sg42
F0.0
sg43
F0.0
sg44
F0.0
sg45
F0.0
sg46
F0.0
sg47
F0.0
sg48
F0.0
sg49
F0.0
sg50
F0.0
sg51
F0.0
sg52
F0.0
sg53
F0.0
sg54
F0.0
sg55
F0.0
sg56
F0.0
sg57
F0.0
sg58
F0.0
sg59
F0.0
sg60
F0.0
sg61
F0.0
sg62
F0.503
sg63
F0.0
sg64
F0.0
sg65
F0.0
sg66
F0.0
sg67
F0.497
sg68
F0.013000000000000012
sg69
F-0.008000000000000007
sg70
F-0.02400000000000002
sg71
F0.0
sg72
F-0.006000000000000005
sg73
F0.0
sg74
F0.0
sg75
F0.0
sg76
F0.0
sg77
F0.0
sg78
F0.0
sg79
F0.0
sg80
F0.0
sg81
F0.0
sg82
F0.0
sg83
F0.0
sg84
F0.0
sg85
F0.0
sg86
F0.0
sg87
F0.0
sg88
F0.0
sg89
F0.0
sg90
F0.0
sg91
F0.0
sg92
F0.0019999999999998908
sg93
F-0.0050000000000000044
sg94
F-0.006000000000000005
sg95
F0.04500000000000004
sg96
F-0.0030000000000000027
sg97
F0.0
sg98
F0.0
sg99
F0.0
sg100
F0.0
ss(S'VD09'
p276
S'DA06'
p277
S'AVBR'
p278
tp279
(dp280
g6
F0.11199999999999999
sg7
F0.02200000000000002
sg8
F0.009000000000000008
sg9
F-0.015999999999999903
sg10
F0.0
sg11
F0.0
sg12
F0.0010000000000000009
sg13
F0.0
sg14
F0.0
sg15
F0.0
sg16
F0.0
sg17
F0.0
sg18
F0.0
sg19
F0.0
sg20
F-0.0040000000000000036
sg21
F0.05499999999999994
sg22
F0.0
sg23
F0.0
sg24
F0.007999999999999896
sg25
F0.0040000000000000036
sg26
F0.010000000000000009
sg27
F0.0050000000000000044
sg28
F-0.02200000000000002
sg29
F0.0
sg30
F0.0
sg31
F0.07499999999999996
sg32
F0.0
sg33
F0.0
sg34
F0.0
sg35
F0.016000000000000014
sg36
F0.0
sg37
F0.009000000000000008
sg38
F0.027000000000000024
sg39
F0.03600000000000003
sg40
F0.15899999999999992
sg41
F0.008000000000000007
sg42
F0.0
sg43
F0.0
sg44
F0.0
sg45
F0.02100000000000002
sg46
F0.0
sg47
F0.0
sg48
F0.0
sg49
F0.0
sg50
F0.008000000000000007
sg51
F0.038000000000000034
sg52
F0.0
sg53
F0.0
sg54
F0.0
sg55
F0.0
sg56
F0.0
sg57
F0.0
sg58
F0.0
sg59
F0.0
sg60
F0.0
sg61
F0.0
sg62
F0.0
sg63
F0.0
sg64
F0.0
sg65
F0.0
sg66
F0.0
sg67
F0.0
sg68
F0.030000000000000027
sg69
F0.1070000000000001
sg70
F0.040999999999999925
sg71
F0.009000000000000008
sg72
F0.10599999999999998
sg73
F0.0
sg74
F0.0
sg75
F0.0
sg76
F0.0
sg77
F0.0
sg78
F0.0
sg79
F0.0
sg80
F0.0
sg81
F0.0
sg82
F0.0
sg83
F0.0
sg84
F0.0
sg85
F0.0
sg86
F0.0
sg87
F0.0
sg88
F0.0
sg89
F0.02400000000000002
sg90
F0.008000000000000007
sg91
F0.0
sg92
F0.009999999999999898
sg93
F0.02300000000000002
sg94
F0.031000000000000028
sg95
F0.016000000000000014
sg96
F0.014000000000000012
sg97
F0.0
sg98
F0.0
sg99
F0.0
sg100
F0.0
ss(S'DB02'
p281
S'DA03'
p282
S'DD01'
p283
tp284
(dp285
g6
F-0.010000000000000009
sg7
F0.07200000000000001
sg8
F-0.009000000000000008
sg9
F-0.008999999999999897
sg10
F0.0
sg11
F0.0
sg12
F-0.01200000000000001
sg13
F0.0
sg14
F0.0
sg15
F0.0
sg16
F0.0
sg17
F0.0
sg18
F0.33299999999999996
sg19
F0.0
sg20
F0.015000000000000013
sg21
F0.0050000000000000044
sg22
F0.0
sg23
F0.0
sg24
F-0.0010000000000000009
sg25
F0.0129999999999999
sg26
F-0.02199999999999991
sg27
F0.0
sg28
F0.0030000000000000027
sg29
F0.0
sg30
F0.0
sg31
F-0.013000000000000012
sg32
F0.0
sg33
F0.0
sg34
F0.0
sg35
F0.0
sg36
F0.0
sg37
F0.0
sg38
F0.0
sg39
F-0.006000000000000005
sg40
F0.0129999999999999
sg41
F-0.02399999999999991
sg42
F0.0
sg43
F0.0
sg44
F0.0
sg45
F0.0
sg46
F0.0
sg47
F0.0
sg48
F0.0
sg49
F0.0
sg50
F0.0
sg51
F0.0
sg52
F0.0
sg53
F0.0
sg54
F0.0
sg55
F0.0
sg56
F0.0
sg57
F0.0
sg58
F0.0
sg59
F0.0
sg60
F0.0
sg61
F0.0
sg62
F0.0
sg63
F0.0
sg64
F0.0
sg65
F0.0
sg66
F0.0
sg67
F0.0
sg68
F0.027000000000000024
sg69
F-0.0050000000000000044
sg70
F-0.006000000000000005
sg71
F0.0
sg72
F0.0
sg73
F0.0
sg74
F0.0
sg75
F0.0
sg76
F0.0
sg77
F0.0
sg78
F0.18799999999999994
sg79
F0.0
sg80
F0.14600000000000002
sg81
F0.0
sg82
F0.0
sg83
F0.0
sg84
F0.0
sg85
F0.0
sg86
F0.0
sg87
F0.0
sg88
F0.0
sg89
F0.0
sg90
F0.0
sg91
F0.0
sg92
F-0.014000000000000012
sg93
F0.030000000000000027
sg94
F-0.0119999999999999
sg95
F-0.0020000000000000018
sg96
F-0.03299999999999992
sg97
F0.33299999999999996
sg98
F0.0
sg99
F0.0
sg100
F0.0
ss(S'DB02'
p286
S'AS03'
p287
S'DD02'
p288
tp289
(dp290
g6
F-0.006000000000000005
sg7
F0.064
sg8
F-0.01200000000000001
sg9
F-0.038999999999999924
sg10
F0.0
sg11
F0.0
sg12
F-0.0050000000000000044
sg13
F0.0
sg14
F0.0
sg15
F0.0
sg16
F0.0
sg17
F0.0
sg18
F0.239
sg19
F0.0
sg20
F-0.014000000000000012
sg21
F0.017999999999999905
sg22
F0.0
sg23
F0.0
sg24
F-0.0020000000000000018
sg25
F0.0119999999999999
sg26
F-0.013999999999999901
sg27
F0.0
sg28
F0.008999999999999897
sg29
F0.0
sg30
F0.0
sg31
F0.009999999999999898
sg32
F0.0
sg33
F0.0
sg34
F0.0
sg35
F0.0
sg36
F0.0
sg37
F0.0
sg38
F0.0
sg39
F-0.01200000000000001
sg40
F-0.0030000000000000027
sg41
F-0.026999999999999913
sg42
F0.0
sg43
F0.0
sg44
F0.0
sg45
F0.0
sg46
F0.0
sg47
F0.0
sg48
F0.0
sg49
F0.0
sg50
F0.0
sg51
F0.0
sg52
F0.0
sg53
F0.0
sg54
F0.0
sg55
F0.0
sg56
F0.0
sg57
F0.0
sg58
F0.0
sg59
F0.0
sg60
F0.0
sg61
F0.0
sg62
F0.0
sg63
F0.0
sg64
F0.0
sg65
F0.0
sg66
F0.0
sg67
F0.0
sg68
F0.0030000000000000027
sg69
F-0.009000000000000008
sg70
F-0.009000000000000008
sg71
F0.0
sg72
F-0.0010000000000000009
sg73
F0.0
sg74
F0.0
sg75
F0.0
sg76
F0.0
sg77
F0.0
sg78
F0.31999999999999995
sg79
F0.0
sg80
F0.21899999999999997
sg81
F0.0
sg82
F0.0
sg83
F0.0
sg84
F0.0
sg85
F0.0
sg86
F0.0
sg87
F0.0
sg88
F0.0
sg89
F0.0
sg90
F0.0
sg91
F0.0
sg92
F-0.008000000000000007
sg93
F0.015000000000000013
sg94
F-0.013999999999999901
sg95
F0.03700000000000003
sg96
F0.007000000000000006
sg97
F0.22199999999999998
sg98
F0.0
sg99
F0.0
sg100
F0.0
ss(S'DB04'
p291
S'AVBR'
p292
S'VA11'
p293
tp294
(dp295
g6
F0.09299999999999997
sg7
F0.043999999999999984
sg8
F0.04399999999999993
sg9
F-0.010999999999999899
sg10
F0.0
sg11
F0.0
sg12
F0.006000000000000005
sg13
F0.0
sg14
F0.0
sg15
F0.0
sg16
F0.0
sg17
F0.0
sg18
F0.0
sg19
F0.0
sg20
F-0.016000000000000014
sg21
F0.03199999999999992
sg22
F0.0
sg23
F0.0
sg24
F0.0119999999999999
sg25
F0.03699999999999992
sg26
F0.04500000000000004
sg27
F0.006000000000000005
sg28
F-0.019000000000000017
sg29
F0.0
sg30
F0.0
sg31
F0.05399999999999994
sg32
F0.0
sg33
F0.0
sg34
F0.0
sg35
F0.009000000000000008
sg36
F0.0
sg37
F0.027000000000000024
sg38
F0.0020000000000000018
sg39
F0.030000000000000027
sg40
F0.1449999999999999
sg41
F-0.03399999999999992
sg42
F0.0
sg43
F0.0
sg44
F0.0
sg45
F0.008000000000000007
sg46
F0.0
sg47
F0.0
sg48
F0.0
sg49
F0.0
sg50
F0.03400000000000003
sg51
F0.006000000000000005
sg52
F0.0
sg53
F0.0
sg54
F0.0
sg55
F0.0
sg56
F0.0
sg57
F0.0
sg58
F0.0
sg59
F0.0
sg60
F0.0
sg61
F0.0
sg62
F0.0
sg63
F0.0
sg64
F0.0
sg65
F0.0
sg66
F0.0
sg67
F0.0
sg68
F0.04300000000000004
sg69
F0.129
sg70
F0.04699999999999993
sg71
F0.02300000000000002
sg72
F0.08699999999999997
sg73
F0.0
sg74
F0.0
sg75
F0.0
sg76
F0.0
sg77
F0.0
sg78
F0.0
sg79
F0.0
sg80
F0.0
sg81
F0.0
sg82
F0.0
sg83
F0.0
sg84
F0.0
sg85
F0.0
sg86
F0.0
sg87
F0.0
sg88
F0.0
sg89
F0.027000000000000024
sg90
F0.013000000000000012
sg91
F0.0
sg92
F0.0
sg93
F-0.02300000000000002
sg94
F0.052000000000000046
sg95
F0.039000000000000035
sg96
F0.009000000000000008
sg97
F0.0
sg98
F0.0
sg99
F0.0
sg100
F0.0
ss(S'AS03'
p296
S'DA02'
p297
S'DD01'
p298
tp299
(dp300
g6
F-0.014000000000000012
sg7
F0.04099999999999998
sg8
F-0.008000000000000007
sg9
F-0.017999999999999905
sg10
F0.0
sg11
F0.0
sg12
F-0.01200000000000001
sg13
F0.0
sg14
F0.0
sg15
F0.0
sg16
F0.0
sg17
F0.0
sg18
F0.32599999999999996
sg19
F0.0
sg20
F-0.02400000000000002
sg21
F0.007000000000000006
sg22
F0.0
sg23
F0.0
sg24
F-0.017000000000000015
sg25
F-0.015000000000000013
sg26
F0.017000000000000015
sg27
F0.0
sg28
F0.005999999999999894
sg29
F0.0
sg30
F0.0
sg31
F-0.01100000000000001
sg32
F0.0
sg33
F0.0
sg34
F0.0
sg35
F0.0
sg36
F0.0
sg37
F0.0
sg38
F0.0
sg39
F-0.017000000000000015
sg40
F-0.010000000000000009
sg41
F-0.013999999999999901
sg42
F0.0
sg43
F0.0
sg44
F0.0
sg45
F0.0
sg46
F0.0
sg47
F0.0
sg48
F0.0
sg49
F0.0
sg50
F0.0
sg51
F0.0
sg52
F0.0
sg53
F0.0
sg54
F0.0
sg55
F0.0
sg56
F0.0
sg57
F0.0
sg58
F0.0
sg59
F0.0
sg60
F0.0
sg61
F0.0
sg62
F0.0
sg63
F0.0
sg64
F0.0
sg65
F0.0
sg66
F0.0
sg67
F0.0
sg68
F0.015000000000000013
sg69
F0.006000000000000005
sg70
F-0.0010000000000000009
sg71
F0.0
sg72
F0.0040000000000000036
sg73
F0.0
sg74
F0.0
sg75
F0.0
sg76
F0.0
sg77
F0.0
sg78
F0.21299999999999997
sg79
F0.0
sg80
F0.17000000000000004
sg81
F0.0
sg82
F0.0
sg83
F0.0
sg84
F0.0
sg85
F0.0
sg86
F0.0
sg87
F0.0
sg88
F0.0
sg89
F0.0
sg90
F0.0
sg91
F0.0
sg92
F0.0029999999999998916
sg93
F0.014000000000000012
sg94
F0.01100000000000001
sg95
F0.04700000000000004
sg96
F-0.009999999999999898
sg97
F0.29100000000000004
sg98
F0.0
sg99
F0.0
sg100
F0.0
ss(S'DB04'
p301
S'VD11'
p302
S'AVBR'
p303
tp304
(dp305
g6
F0.08399999999999996
sg7
F0.04099999999999998
sg8
F0.006000000000000005
sg9
F0.0050000000000000044
sg10
F0.0
sg11
F0.0
sg12
F0.0010000000000000009
sg13
F0.0
sg14
F0.0
sg15
F0.0
sg16
F0.0
sg17
F0.0
sg18
F0.0
sg19
F0.0
sg20
F-0.03399999999999992
sg21
F0.041999999999999926
sg22
F0.0
sg23
F0.0
sg24
F0.0
sg25
F0.03599999999999992
sg26
F0.04500000000000004
sg27
F0.01200000000000001
sg28
F-0.0010000000000000009
sg29
F0.0
sg30
F0.0
sg31
F0.07299999999999995
sg32
F0.0
sg33
F0.0
sg34
F0.0
sg35
F0.0050000000000000044
sg36
F0.0
sg37
F0.04800000000000004
sg38
F0.006000000000000005
sg39
F0.016000000000000014
sg40
F0.15699999999999992
sg41
F-0.016999999999999904
sg42
F0.0
sg43
F0.0
sg44
F0.0
sg45
F0.0050000000000000044
sg46
F0.0
sg47
F0.0
sg48
F0.0
sg49
F0.0
sg50
F0.04200000000000004
sg51
F0.008000000000000007
sg52
F0.0
sg53
F0.0
sg54
F0.0
sg55
F0.0
sg56
F0.0
sg57
F0.0
sg58
F0.0
sg59
F0.0
sg60
F0.0
sg61
F0.0
sg62
F0.0
sg63
F0.0
sg64
F0.0
sg65
F0.0
sg66
F0.0
sg67
F0.0
sg68
F0.03500000000000003
sg69
F0.09900000000000009
sg70
F0.05999999999999994
sg71
F0.017000000000000015
sg72
F0.09699999999999998
sg73
F0.0
sg74
F0.0
sg75
F0.0
sg76
F0.0
sg77
F0.0
sg78
F0.0
sg79
F0.0
sg80
F0.0
sg81
F0.0
sg82
F0.0
sg83
F0.0
sg84
F0.0
sg85
F0.0
sg86
F0.0
sg87
F0.0
sg88
F0.0
sg89
F0.02300000000000002
sg90
F0.01200000000000001
sg91
F0.0
sg92
F-0.015000000000000013
sg93
F0.019000000000000017
sg94
F0.03600000000000003
sg95
F0.025000000000000022
sg96
F0.01200000000000001
sg97
F0.0
sg98
F0.0
sg99
F0.0
sg100
F0.0
ss(S'DB02'
p306
S'DA03'
p307
S'DD02'
p308
tp309
(dp310
g6
F-0.0010000000000000009
sg7
F0.03999999999999998
sg8
F-0.007000000000000006
sg9
F0.0010000000000000009
sg10
F0.0
sg11
F0.0
sg12
F-0.04299999999999998
sg13
F0.0
sg14
F0.0
sg15
F0.0
sg16
F0.0
sg17
F0.0
sg18
F0.241
sg19
F0.0
sg20
F-0.02300000000000002
sg21
F-0.0040000000000000036
sg22
F0.0
sg23
F0.0
sg24
F0.007999999999999896
sg25
F-0.0040000000000000036
sg26
F0.020000000000000018
sg27
F0.0
sg28
F-0.009000000000000008
sg29
F0.0
sg30
F0.0
sg31
F-0.0030000000000000027
sg32
F0.0
sg33
F0.0
sg34
F0.0
sg35
F0.0
sg36
F0.0
sg37
F0.0
sg38
F0.0
sg39
F-0.02100000000000002
sg40
F0.0029999999999998916
sg41
F0.010000000000000009
sg42
F0.0
sg43
F0.0
sg44
F0.0
sg45
F0.0
sg46
F0.0
sg47
F0.0
sg48
F0.0
sg49
F0.0
sg50
F0.0
sg51
F0.0
sg52
F0.0
sg53
F0.0
sg54
F0.0
sg55
F0.0
sg56
F0.0
sg57
F0.0
sg58
F0.0
sg59
F0.0
sg60
F0.0
sg61
F0.0
sg62
F0.0
sg63
F0.0
sg64
F0.0
sg65
F0.0
sg66
F0.0
sg67
F0.0
sg68
F0.030000000000000027
sg69
F-0.007000000000000006
sg70
F-0.009000000000000008
sg71
F0.0
sg72
F0.0010000000000000009
sg73
F0.0
sg74
F0.0
sg75
F0.0
sg76
F0.0
sg77
F0.0
sg78
F0.32499999999999996
sg79
F0.0
sg80
F0.19699999999999995
sg81
F0.0
sg82
F0.0
sg83
F0.0
sg84
F0.0
sg85
F0.0
sg86
F0.0
sg87
F0.0
sg88
F0.0
sg89
F0.0
sg90
F0.0
sg91
F0.0
sg92
F-0.009000000000000008
sg93
F0.0010000000000000009
sg94
F0.010000000000000009
sg95
F0.03400000000000003
sg96
F-0.017999999999999905
sg97
F0.237
sg98
F0.0
sg99
F0.0
sg100
F0.0
ss(S'VD10'
p311
S'DA06'
p312
S'AVBR'
p313
tp314
(dp315
g6
F0.08399999999999996
sg7
F0.07500000000000001
sg8
F0.007000000000000006
sg9
F0.009000000000000008
sg10
F0.0
sg11
F0.0
sg12
F-0.009000000000000008
sg13
F0.0
sg14
F0.0
sg15
F0.0
sg16
F0.0
sg17
F0.0
sg18
F0.0
sg19
F0.0
sg20
F-0.009000000000000008
sg21
F0.041999999999999926
sg22
F0.0
sg23
F0.0
sg24
F0.0010000000000000009
sg25
F0.015999999999999903
sg26
F0.04600000000000004
sg27
F0.009000000000000008
sg28
F-0.016000000000000014
sg29
F0.0
sg30
F0.0
sg31
F0.07099999999999995
sg32
F0.0
sg33
F0.0
sg34
F0.0
sg35
F0.015000000000000013
sg36
F0.0
sg37
F0.019000000000000017
sg38
F0.01100000000000001
sg39
F0.010000000000000009
sg40
F0.17599999999999993
sg41
F-0.02499999999999991
sg42
F0.0
sg43
F0.0
sg44
F0.0
sg45
F0.018000000000000016
sg46
F0.0
sg47
F0.0
sg48
F0.0
sg49
F0.0
sg50
F0.013000000000000012
sg51
F0.014000000000000012
sg52
F0.0
sg53
F0.0
sg54
F0.0
sg55
F0.0
sg56
F0.0
sg57
F0.0
sg58
F0.0
sg59
F0.0
sg60
F0.0
sg61
F0.0
sg62
F0.0
sg63
F0.0
sg64
F0.0
sg65
F0.0
sg66
F0.0
sg67
F0.0
sg68
F0.05300000000000005
sg69
F0.128
sg70
F0.039999999999999925
sg71
F0.026000000000000023
sg72
F0.09499999999999997
sg73
F0.0
sg74
F0.0
sg75
F0.0
sg76
F0.0
sg77
F0.0
sg78
F0.0
sg79
F0.0
sg80
F0.0
sg81
F0.0
sg82
F0.0
sg83
F0.0
sg84
F0.0
sg85
F0.0
sg86
F0.0
sg87
F0.0
sg88
F0.0
sg89
F0.02300000000000002
sg90
F0.014000000000000012
sg91
F0.0
sg92
F-0.02200000000000002
sg93
F0.017000000000000015
sg94
F0.04200000000000004
sg95
F0.016000000000000014
sg96
F-0.008999999999999897
sg97
F0.0
sg98
F0.0
sg99
F0.0
sg100
F0.0
ss(S'DB04'
p316
S'AVBR'
p317
S'AVBL'
p318
tp319
(dp320
g6
F0.10399999999999998
sg7
F0.059
sg8
F-0.01100000000000001
sg9
F-0.02499999999999991
sg10
F0.0
sg11
F0.0
sg12
F-0.016000000000000014
sg13
F0.0
sg14
F0.0
sg15
F0.0
sg16
F0.0
sg17
F0.0
sg18
F0.0
sg19
F0.0
sg20
F-0.0020000000000000018
sg21
F0.05499999999999994
sg22
F0.0
sg23
F0.0
sg24
F-0.020000000000000018
sg25
F-0.0010000000000000009
sg26
F0.0040000000000000036
sg27
F0.0
sg28
F0.0119999999999999
sg29
F0.0
sg30
F0.0
sg31
F0.07499999999999996
sg32
F0.0
sg33
F0.0
sg34
F0.0
sg35
F0.0
sg36
F0.0
sg37
F0.0
sg38
F0.0
sg39
F0.03300000000000003
sg40
F0.19299999999999995
sg41
F0.015000000000000013
sg42
F0.0
sg43
F0.0
sg44
F0.0
sg45
F0.0
sg46
F0.0
sg47
F0.0
sg48
F0.0
sg49
F0.0
sg50
F0.0
sg51
F0.0
sg52
F0.0
sg53
F0.0
sg54
F0.0
sg55
F0.0
sg56
F0.0
sg57
F0.0
sg58
F0.0
sg59
F0.0
sg60
F0.0
sg61
F0.0
sg62
F0.0
sg63
F0.0
sg64
F0.0
sg65
F0.0
sg66
F0.0
sg67
F0.0
sg68
F0.05300000000000005
sg69
F0.136
sg70
F0.08199999999999996
sg71
F0.049000000000000044
sg72
F0.10099999999999998
sg73
F0.0
sg74
F0.0
sg75
F0.0
sg76
F0.0
sg77
F0.0
sg78
F0.0
sg79
F0.0
sg80
F0.0
sg81
F0.0
sg82
F0.0
sg83
F0.0
sg84
F0.0
sg85
F0.0
sg86
F0.0
sg87
F0.0
sg88
F0.0
sg89
F0.049000000000000044
sg90
F0.0
sg91
F0.0
sg92
F-0.007000000000000006
sg93
F0.02300000000000002
sg94
F0.027000000000000024
sg95
F0.0
sg96
F0.01200000000000001
sg97
F0.0
sg98
F0.0
sg99
F0.0
sg100
F0.0
ss(S'DB02'
p321
S'AS03'
p322
S'DD01'
p323
tp324
(dp325
g6
F0.0020000000000000018
sg7
F0.03300000000000003
sg8
F0.0030000000000000027
sg9
F-0.03399999999999992
sg10
F0.0
sg11
F0.0
sg12
F0.0010000000000000009
sg13
F0.0
sg14
F0.0
sg15
F0.0
sg16
F0.0
sg17
F0.0
sg18
F0.344
sg19
F0.0
sg20
F-0.009000000000000008
sg21
F0.019999999999999907
sg22
F0.0
sg23
F0.0
sg24
F0.005999999999999894
sg25
F-0.02100000000000002
sg26
F0.04300000000000004
sg27
F0.0
sg28
F-0.02200000000000002
sg29
F0.0
sg30
F0.0
sg31
F-0.009000000000000008
sg32
F0.0
sg33
F0.0
sg34
F0.0
sg35
F0.0
sg36
F0.0
sg37
F0.0
sg38
F0.0
sg39
F-0.016000000000000014
sg40
F0.0019999999999998908
sg41
F0.0010000000000000009
sg42
F0.0
sg43
F0.0
sg44
F0.0
sg45
F0.0
sg46
F0.0
sg47
F0.0
sg48
F0.0
sg49
F0.0
sg50
F0.0
sg51
F0.0
sg52
F0.0
sg53
F0.0
sg54
F0.0
sg55
F0.0
sg56
F0.0
sg57
F0.0
sg58
F0.0
sg59
F0.0
sg60
F0.0
sg61
F0.0
sg62
F0.0
sg63
F0.0
sg64
F0.0
sg65
F0.0
sg66
F0.0
sg67
F0.0
sg68
F0.01100000000000001
sg69
F-0.008000000000000007
sg70
F-0.019000000000000017
sg71
F0.0
sg72
F0.0030000000000000027
sg73
F0.0
sg74
F0.0
sg75
F0.0
sg76
F0.0
sg77
F0.0
sg78
F0.19899999999999995
sg79
F0.0
sg80
F0.16000000000000003
sg81
F0.0
sg82
F0.0
sg83
F0.0
sg84
F0.0
sg85
F0.0
sg86
F0.0
sg87
F0.0
sg88
F0.0
sg89
F0.0
sg90
F0.0
sg91
F0.0
sg92
F-0.014000000000000012
sg93
F0.0050000000000000044
sg94
F-0.0119999999999999
sg95
F0.02300000000000002
sg96
F0.01100000000000001
sg97
F0.29700000000000004
sg98
F0.0
sg99
F0.0
sg100
F0.0
ss.